

Microchip MPLAB XC8 Assembler V2.36 build 20220127204148 
                                                                                               Thu Apr 13 12:10:14 2023

Microchip MPLAB XC8 C Compiler v2.36 (Free license) build 20220127204148 Og1 
     1                           	processor	18F46K42
     2                           	fnconf	rparam,??,?,0
     3                           	pagewidth 120
     4                           	opt	flic
     5                           	psect	idataCOMRAM,global,class=CODE,delta=1,noexec
     6                           	psect	smallconst,global,reloc=2,class=SMALLCONST,delta=1,noexec
     7                           	psect	nvCOMRAM,global,class=COMRAM,space=1,delta=1,lowdata,noexec
     8                           	psect	nvBANK0,global,class=BANK0,space=1,delta=1,lowdata,noexec
     9                           	psect	cinit,global,reloc=2,class=CODE,delta=1
    10                           	psect	bssCOMRAM,global,class=COMRAM,space=1,delta=1,lowdata,noexec
    11                           	psect	dataCOMRAM,global,class=COMRAM,space=1,delta=1,lowdata,noexec
    12                           	psect	bssBANK0,global,class=BANK0,space=1,delta=1,lowdata,noexec
    13                           	psect	cstackBANK0,global,class=BANK0,space=1,delta=1,lowdata,noexec
    14                           	psect	cstackCOMRAM,global,class=COMRAM,space=1,delta=1,lowdata,noexec
    15                           	psect	text0,global,reloc=2,class=CODE,delta=1
    16                           	psect	text1,global,reloc=2,class=CODE,delta=1
    17                           	psect	text2,global,reloc=2,class=CODE,delta=1
    18                           	psect	text3,global,reloc=2,class=CODE,delta=1,group=1
    19                           	psect	text4,global,reloc=2,class=CODE,delta=1
    20                           	psect	text5,global,reloc=2,class=CODE,delta=1
    21                           	psect	text6,global,reloc=2,class=CODE,delta=1
    22                           	psect	text7,global,reloc=2,class=CODE,delta=1
    23                           	psect	text8,global,reloc=2,class=CODE,delta=1
    24                           	psect	text9,global,reloc=2,class=CODE,delta=1
    25                           	psect	text10,global,reloc=2,class=CODE,delta=1
    26                           	psect	text11,global,reloc=2,class=CODE,delta=1
    27                           	psect	text12,global,reloc=2,class=CODE,delta=1
    28                           	psect	text13,global,reloc=2,class=CODE,delta=1
    29                           	psect	text14,global,reloc=2,class=CODE,delta=1
    30                           	psect	text15,global,reloc=2,class=CODE,delta=1
    31                           	psect	text16,global,reloc=2,class=CODE,delta=1
    32                           	psect	text17,global,reloc=2,class=CODE,delta=1
    33                           	psect	text18,global,reloc=2,class=CODE,delta=1
    34                           	psect	text19,global,reloc=2,class=CODE,delta=1
    35                           	psect	text20,global,reloc=2,class=CODE,delta=1
    36                           	psect	text21,global,reloc=2,class=CODE,delta=1
    37                           	psect	text22,global,reloc=2,class=CODE,delta=1
    38                           	psect	text23,global,reloc=2,class=CODE,delta=1
    39                           	psect	text24,global,reloc=2,class=CODE,delta=1
    40                           	psect	ivt0x8,global,reloc=2,class=CODE,delta=1,noexec,keep,optim=
    41                           	psect	intsave_regs,global,class=BIGRAM,space=1,delta=1,noexec
    42                           	psect	text25,global,reloc=2,class=CODE,delta=1
    43                           	psect	rparam,global,class=COMRAM,space=1,delta=1,noexec
    44                           	psect	idloc,global,abs,ovrld,class=IDLOC,space=5,delta=1,noexec
    45                           	psect	config,global,abs,ovrld,class=CONFIG,space=4,delta=1,noexec
    46  0000                     
    47                           ; Generated 06/04/2022 GMT
    48                           ; 
    49                           ; Copyright © 2022, Microchip Technology Inc. and its subsidiaries ("Microchip")
    50                           ; All rights reserved.
    51                           ; 
    52                           ; This software is developed by Microchip Technology Inc. and its subsidiaries ("Microch
      +                          ip").
    53                           ; 
    54                           ; Redistribution and use in source and binary forms, with or without modification, are
    55                           ; permitted provided that the following conditions are met:
    56                           ; 
    57                           ;     1. Redistributions of source code must retain the above copyright notice, this lis
      +                          t of
    58                           ;        conditions and the following disclaimer.
    59                           ; 
    60                           ;     2. Redistributions in binary form must reproduce the above copyright notice, this 
      +                          list
    61                           ;        of conditions and the following disclaimer in the documentation and/or other
    62                           ;        materials provided with the distribution. Publication is not required when
    63                           ;        this file is used in an embedded application.
    64                           ; 
    65                           ;     3. Microchip's name may not be used to endorse or promote products derived from th
      +                          is
    66                           ;        software without specific prior written permission.
    67                           ; 
    68                           ; THIS SOFTWARE IS PROVIDED BY MICROCHIP "AS IS" AND ANY EXPRESS OR IMPLIED WARRANTIES,
    69                           ; INCLUDING, BUT NOT LIMITED TO, THE IMPLIED WARRANTIES OF MERCHANTABILITY AND FITNESS F
      +                          OR
    70                           ; PURPOSE ARE DISCLAIMED.  IN NO EVENT SHALL MICROCHIP BE LIABLE FOR ANY DIRECT, INDIREC
      +                          T,
    71                           ; INCIDENTAL, SPECIAL, EXEMPLARY, OR CONSEQUENTIAL DAMAGES (INCLUDING BUT NOT LIMITED TO
    72                           ; PROCUREMENT OF SUBSTITUTE GOODS OR SERVICES; LOSS OF USE, DATA OR PROFITS; OR BUSINESS
    73                           ; INTERRUPTION) HOWSOEVER CAUSED AND ON ANY THEORY OF LIABILITY, WHETHER IN CONTRACT, ST
      +                          RICT
    74                           ; LIABILITY, OR TORT (INCLUDING NEGLIGENCE OR OTHERWISE) ARISING IN ANY WAY OUT OF THE U
      +                          SE OF
    75                           ; THIS SOFTWARE, EVEN IF ADVISED OF THE POSSIBILITY OF SUCH DAMAGE.
    76                           ; 
    77                           ; 
    78                           ; Code-generator required, PIC18F46K42 Definitions
    79                           ; 
    80                           ; SFR Addresses
    81  0000                     
    82 ;; Function _UART1_DefaultFramingErrorHandler is unused but had its address taken
    83  0000                     
    84 ;; Function _UART1_DefaultOverrunErrorHandler is unused but had its address taken
    85  0000                     
    86 ;; Function _UART1_DefaultErrorHandler is unused but had its address taken
    87  0000                     
    88                           	psect	idataCOMRAM
    89  0018AA                     __pidataCOMRAM:
    90                           	callstack 0
    91                           
    92                           ;initializer for _q
    93  0018AA  0001               	dw	1
    94                           
    95                           	psect	smallconst
    96  001000                     __psmallconst:
    97                           	callstack 0
    98  001000  00                 	db	0
    99  001001                     _lookuphexa:
   100                           	callstack 0
   101  001001  30                 	db	48
   102  001002  31                 	db	49
   103  001003  32                 	db	50
   104  001004  33                 	db	51
   105  001005  34                 	db	52
   106  001006  35                 	db	53
   107  001007  36                 	db	54
   108  001008  37                 	db	55
   109  001009  38                 	db	56
   110  00100A  39                 	db	57
   111  00100B  61                 	db	97
   112  00100C  62                 	db	98
   113  00100D  63                 	db	99
   114  00100E  64                 	db	100
   115  00100F  65                 	db	101
   116  001010  66                 	db	102
   117  001011                     __end_of_lookuphexa:
   118                           	callstack 0
   119  001011                     _spi1_configuration:
   120                           	callstack 0
   121  001011  83                 	db	131
   122  001012  40                 	db	64
   123  001013  02                 	db	2
   124  001014  20                 	db	32
   125  001015  00                 	db	0
   126  001016                     __end_of_spi1_configuration:
   127                           	callstack 0
   128  001016                     _B:
   129                           	callstack 0
   130  001016  00                 	db	0
   131  001017  00                 	db	0
   132  001018  00                 	db	0
   133  001019  00                 	db	0
   134  00101A  00                 	db	0
   135  00101B  00                 	db	0
   136  00101C  00                 	db	0
   137  00101D  00                 	db	0
   138  00101E  00                 	db	0
   139  00101F  00                 	db	0
   140  001020  00                 	db	0
   141  001021  00                 	db	0
   142  001022  06                 	db	6
   143  001023  1A                 	db	26
   144  001024  3A                 	db	58
   145  001025  4C                 	db	76
   146  001026  3A                 	db	58
   147  001027  1A                 	db	26
   148  001028  06                 	db	6
   149  001029  00                 	db	0
   150  00102A  00                 	db	0
   151  00102B  00                 	db	0
   152  00102C  00                 	db	0
   153  00102D  00                 	db	0
   154  00102E  00                 	db	0
   155  00102F  00                 	db	0
   156  001030  00                 	db	0
   157  001031  00                 	db	0
   158  001032  00                 	db	0
   159  001033  00                 	db	0
   160  001034  00                 	db	0
   161  001035                     __end_of_B:
   162                           	callstack 0
   163  0000                     _ADERRL	set	16098
   164  0000                     _ADERRH	set	16099
   165  0000                     _ADPREVL	set	16109
   166  0000                     _ADPREVH	set	16110
   167  0000                     _ADFLTRL	set	16102
   168  0000                     _ADFLTRH	set	16103
   169  0000                     _ADACCL	set	16104
   170  0000                     _ADACCH	set	16105
   171  0000                     _ADCNT	set	16107
   172  0000                     _ADRESL	set	16111
   173  0000                     _ADRESH	set	16112
   174  0000                     _ADCON0	set	16120
   175  0000                     _ADCON1	set	16121
   176  0000                     _ADPREH	set	16119
   177  0000                     _ADPREL	set	16118
   178  0000                     _ADCAP	set	16117
   179  0000                     _ADACQH	set	16116
   180  0000                     _ADPCH	set	16113
   181  0000                     _ADRPT	set	16108
   182  0000                     _ADACCU	set	16106
   183  0000                     _ADSTPTH	set	16101
   184  0000                     _ADSTPTL	set	16100
   185  0000                     _ADUTHH	set	16097
   186  0000                     _ADUTHL	set	16096
   187  0000                     _ADLTHH	set	16095
   188  0000                     _T2CON	set	16300
   189  0000                     _OSCTUNE	set	14814
   190  0000                     _OSCFRQ	set	14815
   191  0000                     _TRISD	set	16325
   192  0000                     _TRISC	set	16324
   193  0000                     _TRISB	set	16323
   194  0000                     _LATC	set	16316
   195  0000                     _LATB	set	16315
   196  001035  00                 	db	0	; dummy byte at the end
   197  0000                     
   198                           	psect	nvCOMRAM
   199  000044                     __pnvCOMRAM:
   200                           	callstack 0
   201  000044                     _ADCC_ADI_InterruptHandler:
   202                           	callstack 0
   203  000044                     	ds	2
   204  000046                     _UART1_FramingErrorHandler:
   205                           	callstack 0
   206  000046                     	ds	2
   207                           
   208                           	psect	nvBANK0
   209  0000B3                     __pnvBANK0:
   210                           	callstack 0
   211  0000B3                     _UART1_ErrorHandler:
   212                           	callstack 0
   213  0000B3                     	ds	2
   214  0000B5                     _UART1_OverrunErrorHandler:
   215                           	callstack 0
   216  0000B5                     	ds	2
   217  0000                     _U1ERRIRbits	set	15865
   218  0000                     _U1CON0bits	set	15858
   219  0000                     _SPI1CON0bits	set	15636
   220  0000                     _ADCON1bits	set	16121
   221  0000                     _ADSTATbits	set	16124
   222  0000                     _ADCON2bits	set	16122
   223  0000                     _ADCON3bits	set	16123
   224  0000                     _ADCON0bits	set	16120
   225  0000                     _FVRCONbits	set	16065
   226  0000                     _LATBbits	set	16315
   227  0000                     _LATEbits	set	16318
   228  0000                     _LATDbits	set	16317
   229  0000                     _PR2	set	16299
   230  0000                     _TMR2	set	16298
   231  0000                     _T2CONbits	set	16300
   232  0000                     _T2RSTbits	set	16303
   233  0000                     _T2HLTbits	set	16301
   234  0000                     _TRISCbits	set	16324
   235  0000                     _PIE1bits	set	14737
   236  0000                     _PIR2bits	set	14754
   237  0000                     _RC3PPS	set	14867
   238  0000                     _ANSELA	set	14912
   239  0000                     _ANSELB	set	14928
   240  0000                     _ANSELC	set	14944
   241  0000                     _ANSELD	set	14960
   242  0000                     _LATA	set	16314
   243  0000                     _LATD	set	16317
   244  0000                     _LATE	set	16318
   245  0000                     _TRISA	set	16322
   246  0000                     _TRISE	set	16326
   247  0000                     _INTCON0bits	set	16338
   248  0000                     _INLVLD	set	14964
   249  0000                     _SLRCOND	set	14963
   250  0000                     _ODCOND	set	14962
   251  0000                     _RD0I2C	set	14970
   252  0000                     _WPUD	set	14961
   253  0000                     _ANSELE	set	14976
   254  0000                     _INLVLC	set	14948
   255  0000                     _SLRCONC	set	14947
   256  0000                     _ODCONC	set	14946
   257  0000                     _RC3I2C	set	14954
   258  0000                     _WPUC	set	14945
   259  0000                     _INLVLB	set	14932
   260  0000                     _SLRCONB	set	14931
   261  0000                     _ODCONB	set	14930
   262  0000                     _RB1I2C	set	14938
   263  0000                     _WPUB	set	14929
   264  0000                     _SPI1SCKPPS	set	15070
   265  0000                     _INLVLE	set	14980
   266  0000                     _SLRCONE	set	14979
   267  0000                     _ODCONE	set	14978
   268  0000                     _WPUE	set	14977
   269  0000                     _INLVLA	set	14916
   270  0000                     _SLRCONA	set	14915
   271  0000                     _ODCONA	set	14914
   272  0000                     _WPUA	set	14913
   273  0000                     _RB2I2C	set	14939
   274  0000                     _RC4I2C	set	14955
   275  0000                     _RD1I2C	set	14971
   276  0000                     _SPI1SDIPPS	set	15071
   277  0000                     _U1RXPPS	set	15077
   278  0000                     _RC5PPS	set	14869
   279  0000                     _RC6PPS	set	14870
   280  0000                     _SPI1RXB	set	15632
   281  0000                     _SPI1TXB	set	15633
   282  0000                     _SPI1TCNTL	set	15634
   283  0000                     _SPI1CON0	set	15636
   284  0000                     _SPI1STATUSbits	set	15639
   285  0000                     _SPI1BAUD	set	15641
   286  0000                     _SPI1CLK	set	15644
   287  0000                     _SPI1CON2	set	15638
   288  0000                     _SPI1CON1	set	15637
   289  0000                     _U1RXB	set	15848
   290  0000                     _U1P1L	set	15852
   291  0000                     _FVRCON	set	16065
   292  0000                     _PIR4bits	set	14756
   293  0000                     _PIR3bits	set	14755
   294  0000                     _PMD0	set	14784
   295  0000                     _OSCCON1	set	14809
   296  0000                     _OSCCON3	set	14811
   297  0000                     _OSCEN	set	14813
   298  0000                     _PMD7	set	14791
   299  0000                     _PMD6	set	14790
   300  0000                     _PMD5	set	14789
   301  0000                     _PMD4	set	14788
   302  0000                     _PMD3	set	14787
   303  0000                     _PMD2	set	14786
   304  0000                     _PMD1	set	14785
   305  0000                     _ADLTHL	set	16094
   306  0000                     _T2TMR	set	16298
   307  0000                     _T2PR	set	16299
   308  0000                     _T2HLT	set	16301
   309  0000                     _T2CLKCON	set	16302
   310  0000                     _U1ERRIE	set	15866
   311  0000                     _U1ERRIR	set	15865
   312  0000                     _U1UIR	set	15864
   313  0000                     _U1FIFO	set	15863
   314  0000                     _U1BRGH	set	15862
   315  0000                     _U1BRGL	set	15861
   316  0000                     _U1CON2	set	15860
   317  0000                     _U1CON1	set	15859
   318  0000                     _U1CON0	set	15858
   319  0000                     _U1P3H	set	15857
   320  0000                     _U1P3L	set	15856
   321  0000                     _U1P2H	set	15855
   322  0000                     _U1P2L	set	15854
   323  0000                     _U1P1H	set	15853
   324  0000                     _U1TXB	set	15850
   325  0000                     _T2RST	set	16303
   326  0000                     _PIR1bits	set	14753
   327  0000                     _ADACQL	set	16115
   328  0000                     _ADCLK	set	16127
   329  0000                     _ADACT	set	16126
   330  0000                     _ADREF	set	16125
   331  0000                     _ADSTAT	set	16124
   332  0000                     _ADCON3	set	16123
   333  0000                     _ADCON2	set	16122
   334                           
   335                           ; #config settings
   336                           
   337                           	psect	cinit
   338  0016AC                     __pcinit:
   339                           	callstack 0
   340  0016AC                     start_initialization:
   341                           	callstack 0
   342  0016AC                     __initialization:
   343                           	callstack 0
   344                           
   345                           ; Initialize objects allocated to COMRAM (2 bytes)
   346                           ; load TBLPTR registers with __pidataCOMRAM
   347  0016AC  0EAA               	movlw	low __pidataCOMRAM
   348  0016AE  6EF6               	movwf	tblptrl,c
   349  0016B0  0E18               	movlw	high __pidataCOMRAM
   350  0016B2  6EF7               	movwf	tblptrh,c
   351  0016B4  0E00               	movlw	low (__pidataCOMRAM shr (0+16))
   352  0016B6  6EF8               	movwf	tblptru,c
   353  0016B8  0009               	tblrd		*+	;fetch initializer
   354  0016BA  006F FFD4  F048    	movff	tablat,__pdataCOMRAM
   355  0016C0  0009               	tblrd		*+	;fetch initializer
   356  0016C2  006F FFD4  F049    	movff	tablat,__pdataCOMRAM+1
   357                           
   358                           ; Clear objects allocated to BANK0 (62 bytes)
   359  0016C8  EE00  F060         	lfsr	0,__pbssBANK0
   360  0016CC  0E3E               	movlw	62
   361  0016CE                     clear_0:
   362  0016CE  6AEE               	clrf	postinc0,c
   363  0016D0  06E8               	decf	wreg,f,c
   364  0016D2  E1FD               	bnz	clear_0
   365                           
   366                           ; Clear objects allocated to COMRAM (18 bytes)
   367  0016D4  EE00  F032         	lfsr	0,__pbssCOMRAM
   368  0016D8  0E12               	movlw	18
   369  0016DA                     clear_1:
   370  0016DA  6AEE               	clrf	postinc0,c
   371  0016DC  06E8               	decf	wreg,f,c
   372  0016DE  E1FD               	bnz	clear_1
   373                           
   374                           ;
   375                           ; Setup IVTBASE
   376                           ;
   377  0016E0  0E08               	movlw	(ivt0x8_base shr 0)& (0+255)
   378  0016E2  6ED5               	movwf	213,c
   379  0016E4  0E00               	movlw	(ivt0x8_base shr (0+8))& (0+255)
   380  0016E6  6ED6               	movwf	214,c
   381  0016E8  0E00               	movlw	(ivt0x8_base shr (0+16))& (0+255)
   382  0016EA  6ED7               	movwf	215,c
   383  0016EC                     end_of_initialization:
   384                           	callstack 0
   385  0016EC                     __end_of__initialization:
   386                           	callstack 0
   387  0016EC  0100               	movlb	0
   388  0016EE  EF48  F009         	goto	_main	;jump to C main() function
   389                           
   390                           	psect	bssCOMRAM
   391  000032                     __pbssCOMRAM:
   392                           	callstack 0
   393  000032                     _k:
   394                           	callstack 0
   395  000032                     	ds	2
   396  000034                     _resultado:
   397                           	callstack 0
   398  000034                     	ds	2
   399  000036                     _inicie_envio:
   400                           	callstack 0
   401  000036                     	ds	1
   402  000037                     _Dato2:
   403                           	callstack 0
   404  000037                     	ds	1
   405  000038                     _Dato1:
   406                           	callstack 0
   407  000038                     	ds	1
   408  000039                     _D6:
   409                           	callstack 0
   410  000039                     	ds	1
   411  00003A                     _D5:
   412                           	callstack 0
   413  00003A                     	ds	1
   414  00003B                     _D4:
   415                           	callstack 0
   416  00003B                     	ds	1
   417  00003C                     _D3:
   418                           	callstack 0
   419  00003C                     	ds	1
   420  00003D                     _D2:
   421                           	callstack 0
   422  00003D                     	ds	1
   423  00003E                     _D1:
   424                           	callstack 0
   425  00003E                     	ds	1
   426  00003F                     _conv:
   427                           	callstack 0
   428  00003F                     	ds	1
   429  000040                     _ADCInterrupt:
   430                           	callstack 0
   431  000040                     	ds	1
   432  000041                     _uart1RxLastError:
   433                           	callstack 0
   434  000041                     	ds	1
   435  000042                     _resultado_filtro:
   436                           	callstack 0
   437  000042                     	ds	2
   438                           
   439                           	psect	dataCOMRAM
   440  000048                     __pdataCOMRAM:
   441                           	callstack 0
   442  000048                     _q:
   443                           	callstack 0
   444  000048                     	ds	2
   445                           
   446                           	psect	bssBANK0
   447  000060                     __pbssBANK0:
   448                           	callstack 0
   449  000060                     _x:
   450                           	callstack 0
   451  000060                     	ds	62
   452                           
   453                           	psect	cstackBANK0
   454  00009E                     __pcstackBANK0:
   455                           	callstack 0
   456  00009E                     main@cola:
   457                           	callstack 0
   458                           
   459                           ; 21 bytes @ 0x0
   460  00009E                     	ds	21
   461                           
   462                           	psect	cstackCOMRAM
   463  000001                     __pcstackCOMRAM:
   464                           	callstack 0
   465  000001                     ??_INTERRUPT_InterruptManager:
   466  000001                     
   467                           ; 1 bytes @ 0x0
   468  000001                     	ds	2
   469  000003                     ?_ADCC_GetConversionResult:
   470                           	callstack 0
   471  000003                     ?___lmul:
   472                           	callstack 0
   473  000003                     SPI1_WriteByte@byte:
   474                           	callstack 0
   475  000003                     UART1_Write@txData:
   476                           	callstack 0
   477  000003                     UART1_SetFramingErrorHandler@interruptHandler:
   478                           	callstack 0
   479  000003                     UART1_SetOverrunErrorHandler@interruptHandler:
   480                           	callstack 0
   481  000003                     UART1_SetErrorHandler@interruptHandler:
   482                           	callstack 0
   483  000003                     ADCC_SetADIInterruptHandler@InterruptHandler:
   484                           	callstack 0
   485  000003                     inicie_cola@c:
   486                           	callstack 0
   487  000003                     ___lmul@multiplier:
   488                           	callstack 0
   489                           
   490                           ; 4 bytes @ 0x2
   491  000003                     	ds	2
   492  000005                     ??_ADCC_GetConversionResult:
   493                           
   494                           ; 1 bytes @ 0x4
   495  000005                     	ds	2
   496  000007                     ___lmul@multiplicand:
   497                           	callstack 0
   498                           
   499                           ; 4 bytes @ 0x6
   500  000007                     	ds	4
   501  00000B                     ___lmul@product:
   502                           	callstack 0
   503                           
   504                           ; 4 bytes @ 0xA
   505  00000B                     	ds	4
   506  00000F                     ?_filtrar_dato:
   507                           	callstack 0
   508  00000F                     filtrar_dato@in:
   509                           	callstack 0
   510                           
   511                           ; 4 bytes @ 0xE
   512  00000F                     	ds	4
   513  000013                     ??_filtrar_dato:
   514                           
   515                           ; 1 bytes @ 0x12
   516  000013                     	ds	12
   517  00001F                     filtrar_dato@y:
   518                           	callstack 0
   519                           
   520                           ; 4 bytes @ 0x1E
   521  00001F                     	ds	4
   522  000023                     filtrar_dato@apuntadorinv:
   523                           	callstack 0
   524                           
   525                           ; 2 bytes @ 0x22
   526  000023                     	ds	2
   527  000025                     filtrar_dato@apuntadorcoef:
   528                           	callstack 0
   529                           
   530                           ; 2 bytes @ 0x24
   531  000025                     	ds	2
   532  000027                     filtrar_dato@i:
   533                           	callstack 0
   534                           
   535                           ; 2 bytes @ 0x26
   536  000027                     	ds	2
   537  000029                     filtrar_dato@inx:
   538                           	callstack 0
   539                           
   540                           ; 2 bytes @ 0x28
   541  000029                     	ds	2
   542  00002B                     filtrar_dato@anx:
   543                           	callstack 0
   544                           
   545                           ; 2 bytes @ 0x2A
   546  00002B                     	ds	2
   547  00002D                     filtrar_dato@apuntadorarrc:
   548                           	callstack 0
   549                           
   550                           ; 2 bytes @ 0x2C
   551  00002D                     	ds	2
   552  00002F                     ??_main:
   553                           
   554                           ; 1 bytes @ 0x2E
   555  00002F                     	ds	3
   556                           
   557 ;;
   558 ;;Main: autosize = 0, tempsize = 3, incstack = 0, save=0
   559 ;;
   560 ;; *************** function _main *****************
   561 ;; Defined at:
   562 ;;		line 70 in file "main.c"
   563 ;; Parameters:    Size  Location     Type
   564 ;;		None
   565 ;; Auto vars:     Size  Location     Type
   566 ;;  cola           21    0[BANK0 ] struct eCola
   567 ;; Return value:  Size  Location     Type
   568 ;;                  1    wreg      void 
   569 ;; Registers used:
   570 ;;		wreg, fsr2l, fsr2h, status,2, status,0, tblptrl, tblptrh, tblptru, cstack
   571 ;; Tracked objects:
   572 ;;		On entry : 0/0
   573 ;;		On exit  : 0/0
   574 ;;		Unchanged: 0/0
   575 ;; Data sizes:     COMRAM   BANK0   BANK1   BANK2   BANK3   BANK4   BANK5   BANK6   BANK7   BANK8   BANK9  BANK10  BANK1
      +1  BANK12  BANK13  BANK14  BANK15
   576 ;;      Params:         0       0       0       0       0       0       0       0       0       0       0       0       
      +0       0       0       0       0
   577 ;;      Locals:         0      21       0       0       0       0       0       0       0       0       0       0       
      +0       0       0       0       0
   578 ;;      Temps:          3       0       0       0       0       0       0       0       0       0       0       0       
      +0       0       0       0       0
   579 ;;      Totals:         3      21       0       0       0       0       0       0       0       0       0       0       
      +0       0       0       0       0
   580 ;;Total ram usage:       24 bytes
   581 ;; Hardware stack levels required when called: 6
   582 ;; This function calls:
   583 ;;		_ADCC_GetConversionResult
   584 ;;		_ADCC_SetADIInterruptHandler
   585 ;;		_INTERRUPT_Initialize
   586 ;;		_SPI1_WriteByte
   587 ;;		_SYSTEM_Initialize
   588 ;;		_UART1_Initialize
   589 ;;		_UART1_Write
   590 ;;		_filtrar_dato
   591 ;;		_inicie_cola
   592 ;; This function is called by:
   593 ;;		Startup code after reset
   594 ;; This function uses a non-reentrant model
   595 ;;
   596                           
   597                           	psect	text0
   598  001290                     __ptext0:
   599                           	callstack 0
   600  001290                     _main:
   601                           	callstack 25
   602  001290                     
   603                           ;main.c: 73:     SYSTEM_Initialize();
   604  001290  ECCE  F00B         	call	_SYSTEM_Initialize	;wreg free
   605  001294                     
   606                           ;main.c: 80:     (INTCON0bits.GIE = 1);
   607  001294  8ED2               	bsf	210,7,c	;volatile
   608  001296                     
   609                           ;main.c: 84:     INTERRUPT_Initialize();
   610  001296  EC53  F00C         	call	_INTERRUPT_Initialize	;wreg free
   611  00129A                     
   612                           ;main.c: 85:     UART1_Initialize();
   613  00129A  EC22  F00B         	call	_UART1_Initialize	;wreg free
   614  00129E                     
   615                           ;main.c: 86:     eCola cola;;main.c: 87:     inicie_cola(&cola);
   616  00129E  0E9E               	movlw	low main@cola
   617  0012A0  6E03               	movwf	inicie_cola@c^0,c
   618  0012A2  0E00               	movlw	high main@cola
   619  0012A4  6E04               	movwf	(inicie_cola@c+1)^0,c
   620  0012A6  EC79  F00B         	call	_inicie_cola	;wreg free
   621  0012AA                     
   622                           ;main.c: 88:     ADCC_SetADIInterruptHandler(InterruocionADC);
   623  0012AA  0EA0               	movlw	low _InterruocionADC
   624  0012AC  6E03               	movwf	ADCC_SetADIInterruptHandler@InterruptHandler^0,c
   625  0012AE  0E18               	movlw	high _InterruocionADC
   626  0012B0  6E04               	movwf	(ADCC_SetADIInterruptHandler@InterruptHandler+1)^0,c
   627  0012B2  EC42  F00C         	call	_ADCC_SetADIInterruptHandler	;wreg free
   628  0012B6                     
   629                           ;main.c: 89:     ADPCH = primerADC;
   630  0012B6  0E06               	movlw	6
   631  0012B8  013E               	movlb	62	; () banked
   632  0012BA  6FF1               	movwf	241,b	;volatile
   633  0012BC                     
   634                           ; BSR set to: 62
   635                           ;main.c: 90:     SPI1CON0bits.EN = 1;
   636  0012BC  013D               	movlb	61	; () banked
   637  0012BE  8F14               	bsf	20,7,b	;volatile
   638  0012C0                     l2387:
   639                           
   640                           ; BSR set to: 61
   641                           ;main.c: 92:     {;main.c: 93:         if(ADCInterrupt==1){
   642  0012C0  0440               	decf	_ADCInterrupt^0,w,c	;volatile
   643  0012C2  A4D8               	btfss	status,2,c
   644  0012C4  EF66  F009         	goto	u701
   645  0012C8  EF68  F009         	goto	u700
   646  0012CC                     u701:
   647  0012CC  EF2D  F00A         	goto	l2433
   648  0012D0                     u700:
   649  0012D0                     
   650                           ; BSR set to: 61
   651                           ;main.c: 94:             ADCInterrupt = 0;
   652  0012D0  0E00               	movlw	0
   653  0012D2  6E40               	movwf	_ADCInterrupt^0,c	;volatile
   654  0012D4                     
   655                           ; BSR set to: 61
   656                           ;main.c: 95:             resultado = ADCC_GetConversionResult();
   657  0012D4  EC28  F00C         	call	_ADCC_GetConversionResult	;wreg free
   658  0012D8  C003  F034         	movff	?_ADCC_GetConversionResult,_resultado
   659  0012DC  C004  F035         	movff	?_ADCC_GetConversionResult+1,_resultado+1
   660  0012E0                     
   661                           ;main.c: 96:             D1 = lookuphexa[(resultado>>8)&0x0F];
   662  0012E0  C035  F02F         	movff	_resultado+1,??_main
   663  0012E4  6A30               	clrf	(??_main+1)^0,c
   664  0012E6  BE2F               	btfsc	??_main^0,7,c
   665  0012E8  6830               	setf	(??_main+1)^0,c
   666  0012EA  0E0F               	movlw	15
   667  0012EC  162F               	andwf	??_main^0,f,c
   668  0012EE  0E00               	movlw	0
   669  0012F0  1630               	andwf	(??_main+1)^0,f,c
   670  0012F2  0E01               	movlw	low _lookuphexa
   671  0012F4  242F               	addwf	??_main^0,w,c
   672  0012F6  6EF6               	movwf	tblptrl,c
   673  0012F8  0E10               	movlw	high _lookuphexa
   674  0012FA  2030               	addwfc	(??_main+1)^0,w,c
   675  0012FC  6EF7               	movwf	tblptrh,c
   676  0012FE                     	if	1	;There are 3 active tblptr bytes
   677  0012FE  6AF8               	clrf	tblptru,c
   678  001300  0E00               	movlw	low (__mediumconst shr (0+16))
   679  001302  22F8               	addwfc	tblptru,f,c
   680  001304                     	endif
   681  001304  0008               	tblrd		*
   682  001306  006F FFD4  F03E    	movff	tablat,_D1
   683  00130C                     
   684                           ;main.c: 97:             D2 = lookuphexa[(resultado>>4)&0x0F];
   685  00130C  C034  F02F         	movff	_resultado,??_main
   686  001310  C035  F030         	movff	_resultado+1,??_main+1
   687  001314  0E04               	movlw	4
   688  001316  6E31               	movwf	(??_main+2)^0,c
   689  001318                     u715:
   690  001318  3430               	rlcf	(??_main+1)^0,w,c
   691  00131A  3230               	rrcf	(??_main+1)^0,f,c
   692  00131C  322F               	rrcf	??_main^0,f,c
   693  00131E  2E31               	decfsz	(??_main+2)^0,f,c
   694  001320  EF8C  F009         	goto	u715
   695  001324  0E0F               	movlw	15
   696  001326  162F               	andwf	??_main^0,f,c
   697  001328  0E00               	movlw	0
   698  00132A  1630               	andwf	(??_main+1)^0,f,c
   699  00132C  0E01               	movlw	low _lookuphexa
   700  00132E  242F               	addwf	??_main^0,w,c
   701  001330  6EF6               	movwf	tblptrl,c
   702  001332  0E10               	movlw	high _lookuphexa
   703  001334  2030               	addwfc	(??_main+1)^0,w,c
   704  001336  6EF7               	movwf	tblptrh,c
   705  001338                     	if	1	;There are 3 active tblptr bytes
   706  001338  6AF8               	clrf	tblptru,c
   707  00133A  0E00               	movlw	low (__mediumconst shr (0+16))
   708  00133C  22F8               	addwfc	tblptru,f,c
   709  00133E                     	endif
   710  00133E  0008               	tblrd		*
   711  001340  006F FFD4  F03D    	movff	tablat,_D2
   712  001346                     
   713                           ;main.c: 98:             D3 = lookuphexa[(resultado)&0x0F];
   714  001346  0E0F               	movlw	15
   715  001348  1434               	andwf	_resultado^0,w,c
   716  00134A  6E2F               	movwf	??_main^0,c
   717  00134C  0E00               	movlw	0
   718  00134E  1435               	andwf	(_resultado+1)^0,w,c
   719  001350  6E30               	movwf	(??_main+1)^0,c
   720  001352  0E01               	movlw	low _lookuphexa
   721  001354  242F               	addwf	??_main^0,w,c
   722  001356  6EF6               	movwf	tblptrl,c
   723  001358  0E10               	movlw	high _lookuphexa
   724  00135A  2030               	addwfc	(??_main+1)^0,w,c
   725  00135C  6EF7               	movwf	tblptrh,c
   726  00135E                     	if	1	;There are 3 active tblptr bytes
   727  00135E  6AF8               	clrf	tblptru,c
   728  001360  0E00               	movlw	low (__mediumconst shr (0+16))
   729  001362  22F8               	addwfc	tblptru,f,c
   730  001364                     	endif
   731  001364  0008               	tblrd		*
   732  001366  006F FFD4  F03C    	movff	tablat,_D3
   733  00136C  88BD               	bsf	189,4,c	;volatile
   734  00136E                     
   735                           ;main.c: 100:             resultado_filtro = filtrar_dato((long)(resultado));
   736  00136E  C034  F00F         	movff	_resultado,filtrar_dato@in
   737  001372  C035  F010         	movff	_resultado+1,filtrar_dato@in+1
   738  001376  0E00               	movlw	0
   739  001378  BE10               	btfsc	(filtrar_dato@in+1)^0,7,c
   740  00137A  0EFF               	movlw	-1
   741  00137C  6E11               	movwf	(filtrar_dato@in+2)^0,c
   742  00137E  6E12               	movwf	(filtrar_dato@in+3)^0,c
   743  001380  EC1B  F008         	call	_filtrar_dato	;wreg free
   744  001384  C00F  F042         	movff	?_filtrar_dato,_resultado_filtro
   745  001388  C010  F043         	movff	?_filtrar_dato+1,_resultado_filtro+1
   746  00138C                     
   747                           ;main.c: 101:             D4 = lookuphexa[(resultado_filtro>>8)&0x0F];
   748  00138C  C043  F02F         	movff	_resultado_filtro+1,??_main
   749  001390  6A30               	clrf	(??_main+1)^0,c
   750  001392  BE2F               	btfsc	??_main^0,7,c
   751  001394  6830               	setf	(??_main+1)^0,c
   752  001396  0E0F               	movlw	15
   753  001398  162F               	andwf	??_main^0,f,c
   754  00139A  0E00               	movlw	0
   755  00139C  1630               	andwf	(??_main+1)^0,f,c
   756  00139E  0E01               	movlw	low _lookuphexa
   757  0013A0  242F               	addwf	??_main^0,w,c
   758  0013A2  6EF6               	movwf	tblptrl,c
   759  0013A4  0E10               	movlw	high _lookuphexa
   760  0013A6  2030               	addwfc	(??_main+1)^0,w,c
   761  0013A8  6EF7               	movwf	tblptrh,c
   762  0013AA                     	if	1	;There are 3 active tblptr bytes
   763  0013AA  6AF8               	clrf	tblptru,c
   764  0013AC  0E00               	movlw	low (__mediumconst shr (0+16))
   765  0013AE  22F8               	addwfc	tblptru,f,c
   766  0013B0                     	endif
   767  0013B0  0008               	tblrd		*
   768  0013B2  006F FFD4  F03B    	movff	tablat,_D4
   769  0013B8                     
   770                           ;main.c: 102:             D5 = lookuphexa[(resultado_filtro>>4)&0x0F];
   771  0013B8  C042  F02F         	movff	_resultado_filtro,??_main
   772  0013BC  C043  F030         	movff	_resultado_filtro+1,??_main+1
   773  0013C0  0E04               	movlw	4
   774  0013C2  6E31               	movwf	(??_main+2)^0,c
   775  0013C4                     u725:
   776  0013C4  3430               	rlcf	(??_main+1)^0,w,c
   777  0013C6  3230               	rrcf	(??_main+1)^0,f,c
   778  0013C8  322F               	rrcf	??_main^0,f,c
   779  0013CA  2E31               	decfsz	(??_main+2)^0,f,c
   780  0013CC  EFE2  F009         	goto	u725
   781  0013D0  0E0F               	movlw	15
   782  0013D2  162F               	andwf	??_main^0,f,c
   783  0013D4  0E00               	movlw	0
   784  0013D6  1630               	andwf	(??_main+1)^0,f,c
   785  0013D8  0E01               	movlw	low _lookuphexa
   786  0013DA  242F               	addwf	??_main^0,w,c
   787  0013DC  6EF6               	movwf	tblptrl,c
   788  0013DE  0E10               	movlw	high _lookuphexa
   789  0013E0  2030               	addwfc	(??_main+1)^0,w,c
   790  0013E2  6EF7               	movwf	tblptrh,c
   791  0013E4                     	if	1	;There are 3 active tblptr bytes
   792  0013E4  6AF8               	clrf	tblptru,c
   793  0013E6  0E00               	movlw	low (__mediumconst shr (0+16))
   794  0013E8  22F8               	addwfc	tblptru,f,c
   795  0013EA                     	endif
   796  0013EA  0008               	tblrd		*
   797  0013EC  006F FFD4  F03A    	movff	tablat,_D5
   798  0013F2                     
   799                           ;main.c: 103:             D6 = lookuphexa[(resultado_filtro)&0x0F];
   800  0013F2  0E0F               	movlw	15
   801  0013F4  1442               	andwf	_resultado_filtro^0,w,c
   802  0013F6  6E2F               	movwf	??_main^0,c
   803  0013F8  0E00               	movlw	0
   804  0013FA  1443               	andwf	(_resultado_filtro+1)^0,w,c
   805  0013FC  6E30               	movwf	(??_main+1)^0,c
   806  0013FE  0E01               	movlw	low _lookuphexa
   807  001400  242F               	addwf	??_main^0,w,c
   808  001402  6EF6               	movwf	tblptrl,c
   809  001404  0E10               	movlw	high _lookuphexa
   810  001406  2030               	addwfc	(??_main+1)^0,w,c
   811  001408  6EF7               	movwf	tblptrh,c
   812  00140A                     	if	1	;There are 3 active tblptr bytes
   813  00140A  6AF8               	clrf	tblptru,c
   814  00140C  0E00               	movlw	low (__mediumconst shr (0+16))
   815  00140E  22F8               	addwfc	tblptru,f,c
   816  001410                     	endif
   817  001410  0008               	tblrd		*
   818  001412  006F FFD4  F039    	movff	tablat,_D6
   819  001418  98BD               	bcf	189,4,c	;volatile
   820  00141A                     
   821                           ;main.c: 106:             Dato1 = ((0x00 << 7) & (0x80)) | ((0x01 << 5) & (0x20)) | ((0x
      +                          01 << 4) & (0x10)) | (resultado_filtro >> 8) & (0x0F);
   822  00141A  5043               	movf	(_resultado_filtro+1)^0,w,c
   823  00141C  0B0F               	andlw	15
   824  00141E  0930               	iorlw	48
   825  001420  6E38               	movwf	_Dato1^0,c
   826  001422                     
   827                           ;main.c: 107:             Dato2 = (resultado_filtro & 0xFF);
   828  001422  C042  F037         	movff	_resultado_filtro,_Dato2
   829  001426                     
   830                           ;main.c: 108:             UART1_Write(D1);
   831  001426  503E               	movf	_D1^0,w,c
   832  001428  EC02  F00C         	call	_UART1_Write
   833  00142C                     
   834                           ;main.c: 109:             UART1_Write(D2);
   835  00142C  503D               	movf	_D2^0,w,c
   836  00142E  EC02  F00C         	call	_UART1_Write
   837  001432                     
   838                           ;main.c: 110:             UART1_Write(D3);
   839  001432  503C               	movf	_D3^0,w,c
   840  001434  EC02  F00C         	call	_UART1_Write
   841  001438                     
   842                           ;main.c: 111:             UART1_Write(',');
   843  001438  0E2C               	movlw	44
   844  00143A  EC02  F00C         	call	_UART1_Write
   845  00143E                     
   846                           ;main.c: 112:             UART1_Write(Dato1);
   847  00143E  5038               	movf	_Dato1^0,w,c
   848  001440  EC02  F00C         	call	_UART1_Write
   849  001444                     
   850                           ;main.c: 113:             UART1_Write(D5);
   851  001444  503A               	movf	_D5^0,w,c
   852  001446  EC02  F00C         	call	_UART1_Write
   853  00144A                     
   854                           ;main.c: 114:             UART1_Write(D6);
   855  00144A  5039               	movf	_D6^0,w,c
   856  00144C  EC02  F00C         	call	_UART1_Write
   857  001450                     
   858                           ;main.c: 115:             UART1_Write('\n');
   859  001450  0E0A               	movlw	10
   860  001452  EC02  F00C         	call	_UART1_Write
   861  001456                     
   862                           ;main.c: 120:             conv = 1;
   863  001456  0E01               	movlw	1
   864  001458  6E3F               	movwf	_conv^0,c
   865  00145A                     l2433:
   866                           
   867                           ;main.c: 122:         if(!(inicie_envio) && conv){
   868  00145A  5036               	movf	_inicie_envio^0,w,c
   869  00145C  A4D8               	btfss	status,2,c
   870  00145E  EF33  F00A         	goto	u731
   871  001462  EF35  F00A         	goto	u730
   872  001466                     u731:
   873  001466  EF48  F00A         	goto	l2443
   874  00146A                     u730:
   875  00146A  503F               	movf	_conv^0,w,c
   876  00146C  B4D8               	btfsc	status,2,c
   877  00146E  EF3B  F00A         	goto	u741
   878  001472  EF3D  F00A         	goto	u740
   879  001476                     u741:
   880  001476  EF48  F00A         	goto	l2443
   881  00147A                     u740:
   882  00147A  90BE               	bcf	190,0,c	;volatile
   883  00147C                     
   884                           ;main.c: 124:             SPI1_WriteByte(Dato1);
   885  00147C  5038               	movf	_Dato1^0,w,c
   886  00147E  EC47  F00C         	call	_SPI1_WriteByte
   887                           
   888                           ;main.c: 125:             SPI1_WriteByte(Dato2);
   889  001482  5037               	movf	_Dato2^0,w,c
   890  001484  EC47  F00C         	call	_SPI1_WriteByte
   891  001488                     
   892                           ;main.c: 126:             inicie_envio = 1;
   893  001488  0E01               	movlw	1
   894  00148A  6E36               	movwf	_inicie_envio^0,c
   895  00148C                     
   896                           ;main.c: 127:             conv = 0;
   897  00148C  0E00               	movlw	0
   898  00148E  6E3F               	movwf	_conv^0,c
   899  001490                     l2443:
   900                           
   901                           ;main.c: 129:        if((SPI1STATUSbits.TXBE) && inicie_envio){
   902  001490  013D               	movlb	61	; () banked
   903  001492  AB17               	btfss	23,5,b	;volatile
   904  001494  EF4E  F00A         	goto	u751
   905  001498  EF50  F00A         	goto	u750
   906  00149C                     u751:
   907  00149C  EF60  F009         	goto	l2387
   908  0014A0                     u750:
   909  0014A0                     
   910                           ; BSR set to: 61
   911  0014A0  5036               	movf	_inicie_envio^0,w,c
   912  0014A2  B4D8               	btfsc	status,2,c
   913  0014A4  EF56  F00A         	goto	u761
   914  0014A8  EF58  F00A         	goto	u760
   915  0014AC                     u761:
   916  0014AC  EF60  F009         	goto	l2387
   917  0014B0                     u760:
   918  0014B0                     
   919                           ; BSR set to: 61
   920                           ;main.c: 130:            inicie_envio = 0;
   921  0014B0  0E00               	movlw	0
   922  0014B2  6E36               	movwf	_inicie_envio^0,c
   923  0014B4                     
   924                           ; BSR set to: 61
   925  0014B4  80BE               	bsf	190,0,c	;volatile
   926  0014B6                     
   927                           ; BSR set to: 61
   928  0014B6  98BB               	bcf	187,4,c	;volatile
   929  0014B8                     
   930                           ; BSR set to: 61
   931  0014B8  88BB               	bsf	187,4,c	;volatile
   932  0014BA  EF60  F009         	goto	l2387
   933  0014BE  EF0D  F000         	goto	start
   934  0014C2                     __end_of_main:
   935                           	callstack 0
   936                           
   937 ;; *************** function _inicie_cola *****************
   938 ;; Defined at:
   939 ;;		line 3 in file "cola.c"
   940 ;; Parameters:    Size  Location     Type
   941 ;;  c               2    2[COMRAM] PTR struct eCola
   942 ;;		 -> main@cola(21), 
   943 ;; Auto vars:     Size  Location     Type
   944 ;;		None
   945 ;; Return value:  Size  Location     Type
   946 ;;                  1    wreg      void 
   947 ;; Registers used:
   948 ;;		wreg, fsr2l, fsr2h, status,2, status,0
   949 ;; Tracked objects:
   950 ;;		On entry : 0/0
   951 ;;		On exit  : 0/0
   952 ;;		Unchanged: 0/0
   953 ;; Data sizes:     COMRAM   BANK0   BANK1   BANK2   BANK3   BANK4   BANK5   BANK6   BANK7   BANK8   BANK9  BANK10  BANK1
      +1  BANK12  BANK13  BANK14  BANK15
   954 ;;      Params:         2       0       0       0       0       0       0       0       0       0       0       0       
      +0       0       0       0       0
   955 ;;      Locals:         0       0       0       0       0       0       0       0       0       0       0       0       
      +0       0       0       0       0
   956 ;;      Temps:          0       0       0       0       0       0       0       0       0       0       0       0       
      +0       0       0       0       0
   957 ;;      Totals:         2       0       0       0       0       0       0       0       0       0       0       0       
      +0       0       0       0       0
   958 ;;Total ram usage:        2 bytes
   959 ;; Hardware stack levels used: 1
   960 ;; Hardware stack levels required when called: 3
   961 ;; This function calls:
   962 ;;		Nothing
   963 ;; This function is called by:
   964 ;;		_main
   965 ;; This function uses a non-reentrant model
   966 ;;
   967                           
   968                           	psect	text1
   969  0016F2                     __ptext1:
   970                           	callstack 0
   971  0016F2                     _inicie_cola:
   972                           	callstack 27
   973  0016F2                     
   974                           ;cola.c: 3: void inicie_cola(eCola* c);cola.c: 4: {;cola.c: 5:     c->entrada=0;
   975  0016F2  EE20 F00F          	lfsr	2,15
   976  0016F6  5003               	movf	inicie_cola@c^0,w,c
   977  0016F8  26D9               	addwf	fsr2l,f,c
   978  0016FA  5004               	movf	(inicie_cola@c+1)^0,w,c
   979  0016FC  22DA               	addwfc	fsr2h,f,c
   980  0016FE  0E00               	movlw	0
   981  001700  6EDE               	movwf	postinc2,c
   982  001702  0E00               	movlw	0
   983  001704  6EDD               	movwf	postdec2,c
   984                           
   985                           ;cola.c: 6:     c->salida=0;
   986  001706  EE20 F011          	lfsr	2,17
   987  00170A  5003               	movf	inicie_cola@c^0,w,c
   988  00170C  26D9               	addwf	fsr2l,f,c
   989  00170E  5004               	movf	(inicie_cola@c+1)^0,w,c
   990  001710  22DA               	addwfc	fsr2h,f,c
   991  001712  0E00               	movlw	0
   992  001714  6EDE               	movwf	postinc2,c
   993  001716  0E00               	movlw	0
   994  001718  6EDD               	movwf	postdec2,c
   995                           
   996                           ;cola.c: 7:     c->peso=0;
   997  00171A  EE20 F013          	lfsr	2,19
   998  00171E  5003               	movf	inicie_cola@c^0,w,c
   999  001720  26D9               	addwf	fsr2l,f,c
  1000  001722  5004               	movf	(inicie_cola@c+1)^0,w,c
  1001  001724  22DA               	addwfc	fsr2h,f,c
  1002  001726  0E00               	movlw	0
  1003  001728  6EDE               	movwf	postinc2,c
  1004  00172A  0E00               	movlw	0
  1005  00172C  6EDD               	movwf	postdec2,c
  1006  00172E  0012               	return		;funcret
  1007  001730                     __end_of_inicie_cola:
  1008                           	callstack 0
  1009                           
  1010 ;; *************** function _filtrar_dato *****************
  1011 ;; Defined at:
  1012 ;;		line 44 in file "filtro.c"
  1013 ;; Parameters:    Size  Location     Type
  1014 ;;  in              4   14[COMRAM] long 
  1015 ;; Auto vars:     Size  Location     Type
  1016 ;;  y               4   30[COMRAM] long 
  1017 ;;  apuntadorarr    2   44[COMRAM] PTR int 
  1018 ;;		 -> x(62), 
  1019 ;;  anx             2   42[COMRAM] int 
  1020 ;;  inx             2   40[COMRAM] int 
  1021 ;;  i               2   38[COMRAM] int 
  1022 ;;  apuntadorcoe    2   36[COMRAM] PTR unsigned char 
  1023 ;;		 -> B(31), 
  1024 ;;  apuntadorinv    2   34[COMRAM] PTR int 
  1025 ;;		 -> x(62), 
  1026 ;; Return value:  Size  Location     Type
  1027 ;;                  2   14[COMRAM] int 
  1028 ;; Registers used:
  1029 ;;		wreg, fsr2l, fsr2h, status,2, status,0, tblptrl, tblptrh, tblptru, cstack
  1030 ;; Tracked objects:
  1031 ;;		On entry : 0/0
  1032 ;;		On exit  : 0/0
  1033 ;;		Unchanged: 0/0
  1034 ;; Data sizes:     COMRAM   BANK0   BANK1   BANK2   BANK3   BANK4   BANK5   BANK6   BANK7   BANK8   BANK9  BANK10  BANK1
      +1  BANK12  BANK13  BANK14  BANK15
  1035 ;;      Params:         4       0       0       0       0       0       0       0       0       0       0       0       
      +0       0       0       0       0
  1036 ;;      Locals:        16       0       0       0       0       0       0       0       0       0       0       0       
      +0       0       0       0       0
  1037 ;;      Temps:         12       0       0       0       0       0       0       0       0       0       0       0       
      +0       0       0       0       0
  1038 ;;      Totals:        32       0       0       0       0       0       0       0       0       0       0       0       
      +0       0       0       0       0
  1039 ;;Total ram usage:       32 bytes
  1040 ;; Hardware stack levels used: 1
  1041 ;; Hardware stack levels required when called: 4
  1042 ;; This function calls:
  1043 ;;		___lmul
  1044 ;; This function is called by:
  1045 ;;		_main
  1046 ;; This function uses a non-reentrant model
  1047 ;;
  1048                           
  1049                           	psect	text2
  1050  001036                     __ptext2:
  1051                           	callstack 0
  1052  001036                     _filtrar_dato:
  1053                           	callstack 26
  1054  001036                     
  1055                           ;filtro.c: 47:   x[k] = in;
  1056  001036  90D8               	bcf	status,0,c
  1057  001038  3432               	rlcf	_k^0,w,c	;volatile
  1058  00103A  6ED9               	movwf	fsr2l,c
  1059  00103C  3433               	rlcf	(_k+1)^0,w,c	;volatile
  1060  00103E  6EDA               	movwf	fsr2h,c
  1061  001040  0E60               	movlw	low _x
  1062  001042  26D9               	addwf	fsr2l,f,c
  1063  001044  0E00               	movlw	high _x
  1064  001046  22DA               	addwfc	fsr2h,f,c
  1065  001048  0060  F03F  FFDE   	movff	filtrar_dato@in,postinc2
  1066  00104E  0060  F043  FFDD   	movff	filtrar_dato@in+1,postdec2
  1067  001054                     
  1068                           ;filtro.c: 48:   int inx = k;
  1069  001054  C032  F029         	movff	_k,filtrar_dato@inx	;volatile
  1070  001058  C033  F02A         	movff	_k+1,filtrar_dato@inx+1	;volatile
  1071  00105C                     
  1072                           ;filtro.c: 49:   int anx = q;
  1073  00105C  C048  F02B         	movff	_q,filtrar_dato@anx	;volatile
  1074  001060  C049  F02C         	movff	_q+1,filtrar_dato@anx+1	;volatile
  1075  001064                     
  1076                           ;filtro.c: 50:   char *apuntadorcoef = &B[0];
  1077  001064  0E16               	movlw	low _B
  1078  001066  6E25               	movwf	filtrar_dato@apuntadorcoef^0,c
  1079  001068  0E10               	movlw	high _B
  1080  00106A  6E26               	movwf	(filtrar_dato@apuntadorcoef+1)^0,c
  1081  00106C                     
  1082                           ;filtro.c: 51:   int *apuntadorarrc = &x[inx];
  1083  00106C  C029  F013         	movff	filtrar_dato@inx,??_filtrar_dato
  1084  001070  C02A  F014         	movff	filtrar_dato@inx+1,??_filtrar_dato+1
  1085  001074  90D8               	bcf	status,0,c
  1086  001076  3613               	rlcf	??_filtrar_dato^0,f,c
  1087  001078  3614               	rlcf	(??_filtrar_dato+1)^0,f,c
  1088  00107A  0E60               	movlw	low _x
  1089  00107C  2413               	addwf	??_filtrar_dato^0,w,c
  1090  00107E  6E2D               	movwf	filtrar_dato@apuntadorarrc^0,c
  1091  001080  0E00               	movlw	high _x
  1092  001082  2014               	addwfc	(??_filtrar_dato+1)^0,w,c
  1093  001084  6E2E               	movwf	(filtrar_dato@apuntadorarrc+1)^0,c
  1094  001086                     
  1095                           ;filtro.c: 52:   int *apuntadorinv = &x[anx];
  1096  001086  C02B  F013         	movff	filtrar_dato@anx,??_filtrar_dato
  1097  00108A  C02C  F014         	movff	filtrar_dato@anx+1,??_filtrar_dato+1
  1098  00108E  90D8               	bcf	status,0,c
  1099  001090  3613               	rlcf	??_filtrar_dato^0,f,c
  1100  001092  3614               	rlcf	(??_filtrar_dato+1)^0,f,c
  1101  001094  0E60               	movlw	low _x
  1102  001096  2413               	addwf	??_filtrar_dato^0,w,c
  1103  001098  6E23               	movwf	filtrar_dato@apuntadorinv^0,c
  1104  00109A  0E00               	movlw	high _x
  1105  00109C  2014               	addwfc	(??_filtrar_dato+1)^0,w,c
  1106  00109E  6E24               	movwf	(filtrar_dato@apuntadorinv+1)^0,c
  1107  0010A0                     
  1108                           ;filtro.c: 55:   long y = 0;
  1109  0010A0  0E00               	movlw	0
  1110  0010A2  6E1F               	movwf	filtrar_dato@y^0,c
  1111  0010A4  0E00               	movlw	0
  1112  0010A6  6E20               	movwf	(filtrar_dato@y+1)^0,c
  1113  0010A8  0E00               	movlw	0
  1114  0010AA  6E21               	movwf	(filtrar_dato@y+2)^0,c
  1115  0010AC  0E00               	movlw	0
  1116  0010AE  6E22               	movwf	(filtrar_dato@y+3)^0,c
  1117  0010B0                     
  1118                           ;filtro.c: 56:   for (i = 0; i < (int)(31/2); ++i) {
  1119  0010B0  0E00               	movlw	0
  1120  0010B2  6E28               	movwf	(filtrar_dato@i+1)^0,c
  1121  0010B4  0E00               	movlw	0
  1122  0010B6  6E27               	movwf	filtrar_dato@i^0,c
  1123  0010B8                     l2321:
  1124                           
  1125                           ;filtro.c: 57:     y += (long)(*apuntadorcoef) * ((long)(*apuntadorarrc) + (long)(*apunt
      +                          adorinv));
  1126  0010B8  0060  F08F  FFD9   	movff	filtrar_dato@apuntadorinv,fsr2l
  1127  0010BE  0060  F093  FFDA   	movff	filtrar_dato@apuntadorinv+1,fsr2h
  1128  0010C4  006F FF78  F013    	movff	postinc2,??_filtrar_dato
  1129  0010CA  006F FF74  F014    	movff	postdec2,??_filtrar_dato+1
  1130  0010D0  C013  F015         	movff	??_filtrar_dato,??_filtrar_dato+2
  1131  0010D4  C014  F016         	movff	??_filtrar_dato+1,??_filtrar_dato+3
  1132  0010D8  0E00               	movlw	0
  1133  0010DA  BE16               	btfsc	(??_filtrar_dato+3)^0,7,c
  1134  0010DC  0EFF               	movlw	255
  1135  0010DE  6E17               	movwf	(??_filtrar_dato+4)^0,c
  1136  0010E0  6E18               	movwf	(??_filtrar_dato+5)^0,c
  1137  0010E2  0060  F0B7  FFD9   	movff	filtrar_dato@apuntadorarrc,fsr2l
  1138  0010E8  0060  F0BB  FFDA   	movff	filtrar_dato@apuntadorarrc+1,fsr2h
  1139  0010EE  006F FF78  F019    	movff	postinc2,??_filtrar_dato+6
  1140  0010F4  006F FF74  F01A    	movff	postdec2,??_filtrar_dato+7
  1141  0010FA  C019  F01B         	movff	??_filtrar_dato+6,??_filtrar_dato+8
  1142  0010FE  C01A  F01C         	movff	??_filtrar_dato+7,??_filtrar_dato+9
  1143  001102  0E00               	movlw	0
  1144  001104  BE1C               	btfsc	(??_filtrar_dato+9)^0,7,c
  1145  001106  0EFF               	movlw	255
  1146  001108  6E1D               	movwf	(??_filtrar_dato+10)^0,c
  1147  00110A  6E1E               	movwf	(??_filtrar_dato+11)^0,c
  1148  00110C  5015               	movf	(??_filtrar_dato+2)^0,w,c
  1149  00110E  241B               	addwf	(??_filtrar_dato+8)^0,w,c
  1150  001110  6E03               	movwf	___lmul@multiplier^0,c
  1151  001112  5016               	movf	(??_filtrar_dato+3)^0,w,c
  1152  001114  201C               	addwfc	(??_filtrar_dato+9)^0,w,c
  1153  001116  6E04               	movwf	(___lmul@multiplier+1)^0,c
  1154  001118  5017               	movf	(??_filtrar_dato+4)^0,w,c
  1155  00111A  201D               	addwfc	(??_filtrar_dato+10)^0,w,c
  1156  00111C  6E05               	movwf	(___lmul@multiplier+2)^0,c
  1157  00111E  5018               	movf	(??_filtrar_dato+5)^0,w,c
  1158  001120  201E               	addwfc	(??_filtrar_dato+11)^0,w,c
  1159  001122  6E06               	movwf	(___lmul@multiplier+3)^0,c
  1160  001124  0060  F097  FFF6   	movff	filtrar_dato@apuntadorcoef,tblptrl
  1161  00112A  0060  F09B  FFF7   	movff	filtrar_dato@apuntadorcoef+1,tblptrh
  1162  001130                     	if	1	;Program memory is < 0x10000, tblptru is always zero
  1163  001130  6AF8               	clrf	tblptru,c
  1164  001132                     	endif
  1165  001132                     	if	0	;tblptru may be non-zero
  1166  001132                     	endif
  1167  001132  0008               	tblrd		*
  1168  001134  50F5               	movf	tablat,w,c
  1169  001136  6E07               	movwf	___lmul@multiplicand^0,c
  1170  001138  6A08               	clrf	(___lmul@multiplicand+1)^0,c
  1171  00113A  6A09               	clrf	(___lmul@multiplicand+2)^0,c
  1172  00113C  6A0A               	clrf	(___lmul@multiplicand+3)^0,c
  1173  00113E  ECED  F00A         	call	___lmul	;wreg free
  1174  001142  5003               	movf	?___lmul^0,w,c
  1175  001144  261F               	addwf	filtrar_dato@y^0,f,c
  1176  001146  5004               	movf	(?___lmul+1)^0,w,c
  1177  001148  2220               	addwfc	(filtrar_dato@y+1)^0,f,c
  1178  00114A  5005               	movf	(?___lmul+2)^0,w,c
  1179  00114C  2221               	addwfc	(filtrar_dato@y+2)^0,f,c
  1180  00114E  5006               	movf	(?___lmul+3)^0,w,c
  1181  001150  2222               	addwfc	(filtrar_dato@y+3)^0,f,c
  1182  001152                     
  1183                           ;filtro.c: 58:     apuntadorcoef++;
  1184  001152  4A25               	infsnz	filtrar_dato@apuntadorcoef^0,f,c
  1185  001154  2A26               	incf	(filtrar_dato@apuntadorcoef+1)^0,f,c
  1186  001156                     
  1187                           ;filtro.c: 59:     if (inx != 0) {
  1188  001156  5029               	movf	filtrar_dato@inx^0,w,c
  1189  001158  102A               	iorwf	(filtrar_dato@inx+1)^0,w,c
  1190  00115A  B4D8               	btfsc	status,2,c
  1191  00115C  EFB2  F008         	goto	u651
  1192  001160  EFB4  F008         	goto	u650
  1193  001164                     u651:
  1194  001164  EFBD  F008         	goto	l2331
  1195  001168                     u650:
  1196  001168                     
  1197                           ;filtro.c: 60:       apuntadorarrc--;
  1198  001168  0E02               	movlw	2
  1199  00116A  5E2D               	subwf	filtrar_dato@apuntadorarrc^0,f,c
  1200  00116C  0E00               	movlw	0
  1201  00116E  5A2E               	subwfb	(filtrar_dato@apuntadorarrc+1)^0,f,c
  1202  001170                     
  1203                           ;filtro.c: 61:       inx--;
  1204  001170  0629               	decf	filtrar_dato@inx^0,f,c
  1205  001172  A0D8               	btfss	status,0,c
  1206  001174  062A               	decf	(filtrar_dato@inx+1)^0,f,c
  1207                           
  1208                           ;filtro.c: 62:     }
  1209  001176  EFC5  F008         	goto	l2335
  1210  00117A                     l2331:
  1211                           
  1212                           ;filtro.c: 64:       apuntadorarrc = &x[31 - 1];
  1213  00117A  0E9C               	movlw	low (_x+60)
  1214  00117C  6E2D               	movwf	filtrar_dato@apuntadorarrc^0,c
  1215  00117E  0E00               	movlw	high (_x+60)
  1216  001180  6E2E               	movwf	(filtrar_dato@apuntadorarrc+1)^0,c
  1217  001182                     
  1218                           ;filtro.c: 65:       inx = 31 - 1;
  1219  001182  0E00               	movlw	0
  1220  001184  6E2A               	movwf	(filtrar_dato@inx+1)^0,c
  1221  001186  0E1E               	movlw	30
  1222  001188  6E29               	movwf	filtrar_dato@inx^0,c
  1223  00118A                     l2335:
  1224                           
  1225                           ;filtro.c: 67:     if (anx != 31 -1){
  1226  00118A  0E1E               	movlw	30
  1227  00118C  182B               	xorwf	filtrar_dato@anx^0,w,c
  1228  00118E  102C               	iorwf	(filtrar_dato@anx+1)^0,w,c
  1229  001190  B4D8               	btfsc	status,2,c
  1230  001192  EFCD  F008         	goto	u661
  1231  001196  EFCF  F008         	goto	u660
  1232  00119A                     u661:
  1233  00119A  EFD7  F008         	goto	l2341
  1234  00119E                     u660:
  1235  00119E                     
  1236                           ;filtro.c: 68:         apuntadorinv++;
  1237  00119E  0E02               	movlw	2
  1238  0011A0  2623               	addwf	filtrar_dato@apuntadorinv^0,f,c
  1239  0011A2  0E00               	movlw	0
  1240  0011A4  2224               	addwfc	(filtrar_dato@apuntadorinv+1)^0,f,c
  1241  0011A6                     
  1242                           ;filtro.c: 69:         anx++;
  1243  0011A6  4A2B               	infsnz	filtrar_dato@anx^0,f,c
  1244  0011A8  2A2C               	incf	(filtrar_dato@anx+1)^0,f,c
  1245                           
  1246                           ;filtro.c: 70:     }
  1247  0011AA  EFDF  F008         	goto	l2345
  1248  0011AE                     l2341:
  1249                           
  1250                           ;filtro.c: 72:     apuntadorinv = &x[0];
  1251  0011AE  0E60               	movlw	low _x
  1252  0011B0  6E23               	movwf	filtrar_dato@apuntadorinv^0,c
  1253  0011B2  0E00               	movlw	high _x
  1254  0011B4  6E24               	movwf	(filtrar_dato@apuntadorinv+1)^0,c
  1255  0011B6                     
  1256                           ;filtro.c: 73:     anx = 0;
  1257  0011B6  0E00               	movlw	0
  1258  0011B8  6E2C               	movwf	(filtrar_dato@anx+1)^0,c
  1259  0011BA  0E00               	movlw	0
  1260  0011BC  6E2B               	movwf	filtrar_dato@anx^0,c
  1261  0011BE                     l2345:
  1262                           
  1263                           ;filtro.c: 75:   }
  1264  0011BE  4A27               	infsnz	filtrar_dato@i^0,f,c
  1265  0011C0  2A28               	incf	(filtrar_dato@i+1)^0,f,c
  1266  0011C2  BE28               	btfsc	(filtrar_dato@i+1)^0,7,c
  1267  0011C4  EFED  F008         	goto	u671
  1268  0011C8  5028               	movf	(filtrar_dato@i+1)^0,w,c
  1269  0011CA  E109               	bnz	u670
  1270  0011CC  0E0F               	movlw	15
  1271  0011CE  5C27               	subwf	filtrar_dato@i^0,w,c
  1272  0011D0  A0D8               	btfss	status,0,c
  1273  0011D2  EFED  F008         	goto	u671
  1274  0011D6  EFEF  F008         	goto	u670
  1275  0011DA                     u671:
  1276  0011DA  EF5C  F008         	goto	l2321
  1277  0011DE                     u670:
  1278  0011DE                     
  1279                           ;filtro.c: 77:       y += (long)(*apuntadorcoef) * ((long)(*apuntadorarrc));
  1280  0011DE  0060  F097  FFF6   	movff	filtrar_dato@apuntadorcoef,tblptrl
  1281  0011E4  0060  F09B  FFF7   	movff	filtrar_dato@apuntadorcoef+1,tblptrh
  1282  0011EA                     	if	1	;Program memory is < 0x10000, tblptru is always zero
  1283  0011EA  6AF8               	clrf	tblptru,c
  1284  0011EC                     	endif
  1285  0011EC                     	if	0	;tblptru may be non-zero
  1286  0011EC                     	endif
  1287  0011EC  0008               	tblrd		*
  1288  0011EE  50F5               	movf	tablat,w,c
  1289  0011F0  6E03               	movwf	___lmul@multiplier^0,c
  1290  0011F2  6A04               	clrf	(___lmul@multiplier+1)^0,c
  1291  0011F4  6A05               	clrf	(___lmul@multiplier+2)^0,c
  1292  0011F6  6A06               	clrf	(___lmul@multiplier+3)^0,c
  1293  0011F8  0060  F0B7  FFD9   	movff	filtrar_dato@apuntadorarrc,fsr2l
  1294  0011FE  0060  F0BB  FFDA   	movff	filtrar_dato@apuntadorarrc+1,fsr2h
  1295  001204  006F FF78  F007    	movff	postinc2,___lmul@multiplicand
  1296  00120A  006F FF74  F008    	movff	postdec2,___lmul@multiplicand+1
  1297  001210  0E00               	movlw	0
  1298  001212  BE08               	btfsc	(___lmul@multiplicand+1)^0,7,c
  1299  001214  0EFF               	movlw	-1
  1300  001216  6E09               	movwf	(___lmul@multiplicand+2)^0,c
  1301  001218  6E0A               	movwf	(___lmul@multiplicand+3)^0,c
  1302  00121A  ECED  F00A         	call	___lmul	;wreg free
  1303  00121E  5003               	movf	?___lmul^0,w,c
  1304  001220  261F               	addwf	filtrar_dato@y^0,f,c
  1305  001222  5004               	movf	(?___lmul+1)^0,w,c
  1306  001224  2220               	addwfc	(filtrar_dato@y+1)^0,f,c
  1307  001226  5005               	movf	(?___lmul+2)^0,w,c
  1308  001228  2221               	addwfc	(filtrar_dato@y+2)^0,f,c
  1309  00122A  5006               	movf	(?___lmul+3)^0,w,c
  1310  00122C  2222               	addwfc	(filtrar_dato@y+3)^0,f,c
  1311  00122E                     
  1312                           ;filtro.c: 79:   k++;
  1313  00122E  4A32               	infsnz	_k^0,f,c	;volatile
  1314  001230  2A33               	incf	(_k+1)^0,f,c	;volatile
  1315  001232                     
  1316                           ;filtro.c: 80:   q++;
  1317  001232  4A48               	infsnz	_q^0,f,c	;volatile
  1318  001234  2A49               	incf	(_q+1)^0,f,c	;volatile
  1319  001236                     
  1320                           ;filtro.c: 81:   k = (k >= 31) ? 0 : k;
  1321  001236  BE33               	btfsc	(_k+1)^0,7,c	;volatile
  1322  001238  EF29  F009         	goto	u680
  1323  00123C  5033               	movf	(_k+1)^0,w,c	;volatile
  1324  00123E  E107               	bnz	u681
  1325  001240  0E1F               	movlw	31
  1326  001242  5C32               	subwf	_k^0,w,c	;volatile
  1327  001244  B0D8               	btfsc	status,0,c
  1328  001246  EF27  F009         	goto	u681
  1329  00124A  EF29  F009         	goto	u680
  1330  00124E                     u681:
  1331  00124E  EF2B  F009         	goto	l2359
  1332  001252                     u680:
  1333  001252  EF2F  F009         	goto	l2361
  1334  001256                     l2359:
  1335  001256  0E00               	movlw	0
  1336  001258  6E33               	movwf	(_k+1)^0,c	;volatile
  1337  00125A  0E00               	movlw	0
  1338  00125C  6E32               	movwf	_k^0,c	;volatile
  1339  00125E                     l2361:
  1340                           
  1341                           ;filtro.c: 82:   q = (q >= 31) ? 0 : q;
  1342  00125E  BE49               	btfsc	(_q+1)^0,7,c	;volatile
  1343  001260  EF3D  F009         	goto	u690
  1344  001264  5049               	movf	(_q+1)^0,w,c	;volatile
  1345  001266  E107               	bnz	u691
  1346  001268  0E1F               	movlw	31
  1347  00126A  5C48               	subwf	_q^0,w,c	;volatile
  1348  00126C  B0D8               	btfsc	status,0,c
  1349  00126E  EF3B  F009         	goto	u691
  1350  001272  EF3D  F009         	goto	u690
  1351  001276                     u691:
  1352  001276  EF3F  F009         	goto	l2365
  1353  00127A                     u690:
  1354  00127A  EF43  F009         	goto	l2367
  1355  00127E                     l2365:
  1356  00127E  0E00               	movlw	0
  1357  001280  6E49               	movwf	(_q+1)^0,c	;volatile
  1358  001282  0E00               	movlw	0
  1359  001284  6E48               	movwf	_q^0,c	;volatile
  1360  001286                     l2367:
  1361                           
  1362                           ;filtro.c: 83:   return y>>8;
  1363  001286  C020  F00F         	movff	filtrar_dato@y+1,?_filtrar_dato
  1364  00128A  C021  F010         	movff	filtrar_dato@y+2,?_filtrar_dato+1
  1365  00128E  0012               	return		;funcret
  1366  001290                     __end_of_filtrar_dato:
  1367                           	callstack 0
  1368                           
  1369 ;; *************** function ___lmul *****************
  1370 ;; Defined at:
  1371 ;;		line 15 in file "C:\Program Files\Microchip\xc8\v2.36\pic\sources\c99\common\Umul32.c"
  1372 ;; Parameters:    Size  Location     Type
  1373 ;;  multiplier      4    2[COMRAM] unsigned long 
  1374 ;;  multiplicand    4    6[COMRAM] unsigned long 
  1375 ;; Auto vars:     Size  Location     Type
  1376 ;;  product         4   10[COMRAM] unsigned long 
  1377 ;; Return value:  Size  Location     Type
  1378 ;;                  4    2[COMRAM] unsigned long 
  1379 ;; Registers used:
  1380 ;;		wreg, status,2, status,0
  1381 ;; Tracked objects:
  1382 ;;		On entry : 0/0
  1383 ;;		On exit  : 0/0
  1384 ;;		Unchanged: 0/0
  1385 ;; Data sizes:     COMRAM   BANK0   BANK1   BANK2   BANK3   BANK4   BANK5   BANK6   BANK7   BANK8   BANK9  BANK10  BANK1
      +1  BANK12  BANK13  BANK14  BANK15
  1386 ;;      Params:         8       0       0       0       0       0       0       0       0       0       0       0       
      +0       0       0       0       0
  1387 ;;      Locals:         4       0       0       0       0       0       0       0       0       0       0       0       
      +0       0       0       0       0
  1388 ;;      Temps:          0       0       0       0       0       0       0       0       0       0       0       0       
      +0       0       0       0       0
  1389 ;;      Totals:        12       0       0       0       0       0       0       0       0       0       0       0       
      +0       0       0       0       0
  1390 ;;Total ram usage:       12 bytes
  1391 ;; Hardware stack levels used: 1
  1392 ;; Hardware stack levels required when called: 3
  1393 ;; This function calls:
  1394 ;;		Nothing
  1395 ;; This function is called by:
  1396 ;;		_filtrar_dato
  1397 ;; This function uses a non-reentrant model
  1398 ;;
  1399                           
  1400                           	psect	text3
  1401  0015DA                     __ptext3:
  1402                           	callstack 0
  1403  0015DA                     ___lmul:
  1404                           	callstack 26
  1405  0015DA  0E00               	movlw	0
  1406  0015DC  6E0B               	movwf	___lmul@product^0,c
  1407  0015DE  0E00               	movlw	0
  1408  0015E0  6E0C               	movwf	(___lmul@product+1)^0,c
  1409  0015E2  0E00               	movlw	0
  1410  0015E4  6E0D               	movwf	(___lmul@product+2)^0,c
  1411  0015E6  0E00               	movlw	0
  1412  0015E8  6E0E               	movwf	(___lmul@product+3)^0,c
  1413  0015EA                     l2261:
  1414  0015EA  A003               	btfss	___lmul@multiplier^0,0,c
  1415  0015EC  EFFA  F00A         	goto	u621
  1416  0015F0  EFFC  F00A         	goto	u620
  1417  0015F4                     u621:
  1418  0015F4  EF04  F00B         	goto	l2265
  1419  0015F8                     u620:
  1420  0015F8  5007               	movf	___lmul@multiplicand^0,w,c
  1421  0015FA  260B               	addwf	___lmul@product^0,f,c
  1422  0015FC  5008               	movf	(___lmul@multiplicand+1)^0,w,c
  1423  0015FE  220C               	addwfc	(___lmul@product+1)^0,f,c
  1424  001600  5009               	movf	(___lmul@multiplicand+2)^0,w,c
  1425  001602  220D               	addwfc	(___lmul@product+2)^0,f,c
  1426  001604  500A               	movf	(___lmul@multiplicand+3)^0,w,c
  1427  001606  220E               	addwfc	(___lmul@product+3)^0,f,c
  1428  001608                     l2265:
  1429  001608  90D8               	bcf	status,0,c
  1430  00160A  3607               	rlcf	___lmul@multiplicand^0,f,c
  1431  00160C  3608               	rlcf	(___lmul@multiplicand+1)^0,f,c
  1432  00160E  3609               	rlcf	(___lmul@multiplicand+2)^0,f,c
  1433  001610  360A               	rlcf	(___lmul@multiplicand+3)^0,f,c
  1434  001612  90D8               	bcf	status,0,c
  1435  001614  3206               	rrcf	(___lmul@multiplier+3)^0,f,c
  1436  001616  3205               	rrcf	(___lmul@multiplier+2)^0,f,c
  1437  001618  3204               	rrcf	(___lmul@multiplier+1)^0,f,c
  1438  00161A  3203               	rrcf	___lmul@multiplier^0,f,c
  1439  00161C  5003               	movf	___lmul@multiplier^0,w,c
  1440  00161E  1004               	iorwf	(___lmul@multiplier+1)^0,w,c
  1441  001620  1005               	iorwf	(___lmul@multiplier+2)^0,w,c
  1442  001622  1006               	iorwf	(___lmul@multiplier+3)^0,w,c
  1443  001624  A4D8               	btfss	status,2,c
  1444  001626  EF17  F00B         	goto	u631
  1445  00162A  EF19  F00B         	goto	u630
  1446  00162E                     u631:
  1447  00162E  EFF5  F00A         	goto	l2261
  1448  001632                     u630:
  1449  001632  C00B  F003         	movff	___lmul@product,?___lmul
  1450  001636  C00C  F004         	movff	___lmul@product+1,?___lmul+1
  1451  00163A  C00D  F005         	movff	___lmul@product+2,?___lmul+2
  1452  00163E  C00E  F006         	movff	___lmul@product+3,?___lmul+3
  1453  001642  0012               	return		;funcret
  1454  001644                     __end_of___lmul:
  1455                           	callstack 0
  1456                           
  1457 ;; *************** function _UART1_Write *****************
  1458 ;; Defined at:
  1459 ;;		line 170 in file "mcc_generated_files/uart1.c"
  1460 ;; Parameters:    Size  Location     Type
  1461 ;;  txData          1    wreg     unsigned char 
  1462 ;; Auto vars:     Size  Location     Type
  1463 ;;  txData          1    2[COMRAM] unsigned char 
  1464 ;; Return value:  Size  Location     Type
  1465 ;;                  1    wreg      void 
  1466 ;; Registers used:
  1467 ;;		wreg
  1468 ;; Tracked objects:
  1469 ;;		On entry : 0/0
  1470 ;;		On exit  : 0/0
  1471 ;;		Unchanged: 0/0
  1472 ;; Data sizes:     COMRAM   BANK0   BANK1   BANK2   BANK3   BANK4   BANK5   BANK6   BANK7   BANK8   BANK9  BANK10  BANK1
      +1  BANK12  BANK13  BANK14  BANK15
  1473 ;;      Params:         0       0       0       0       0       0       0       0       0       0       0       0       
      +0       0       0       0       0
  1474 ;;      Locals:         1       0       0       0       0       0       0       0       0       0       0       0       
      +0       0       0       0       0
  1475 ;;      Temps:          0       0       0       0       0       0       0       0       0       0       0       0       
      +0       0       0       0       0
  1476 ;;      Totals:         1       0       0       0       0       0       0       0       0       0       0       0       
      +0       0       0       0       0
  1477 ;;Total ram usage:        1 bytes
  1478 ;; Hardware stack levels used: 1
  1479 ;; Hardware stack levels required when called: 3
  1480 ;; This function calls:
  1481 ;;		Nothing
  1482 ;; This function is called by:
  1483 ;;		_main
  1484 ;; This function uses a non-reentrant model
  1485 ;;
  1486                           
  1487                           	psect	text4
  1488  001804                     __ptext4:
  1489                           	callstack 0
  1490  001804                     _UART1_Write:
  1491                           	callstack 27
  1492                           
  1493                           ;incstack = 0
  1494                           ;UART1_Write@txData stored from wreg
  1495  001804  6E03               	movwf	UART1_Write@txData^0,c
  1496  001806                     l319:
  1497                           
  1498                           ;mcc_generated_files/uart1.c: 172:     while(0 == PIR3bits.U1TXIF)
  1499  001806  0139               	movlb	57	; () banked
  1500  001808  A9A3               	btfss	163,4,b	;volatile
  1501  00180A  EF09  F00C         	goto	u641
  1502  00180E  EF0B  F00C         	goto	u640
  1503  001812                     u641:
  1504  001812  EF03  F00C         	goto	l319
  1505  001816                     u640:
  1506  001816                     
  1507                           ; BSR set to: 57
  1508                           ;mcc_generated_files/uart1.c: 176:     U1TXB = txData;
  1509  001816  0060  F00F  FDEA   	movff	UART1_Write@txData,15850	;volatile
  1510  00181C                     
  1511                           ; BSR set to: 57
  1512  00181C  0012               	return		;funcret
  1513  00181E                     __end_of_UART1_Write:
  1514                           	callstack 0
  1515                           
  1516 ;; *************** function _SYSTEM_Initialize *****************
  1517 ;; Defined at:
  1518 ;;		line 50 in file "mcc_generated_files/mcc.c"
  1519 ;; Parameters:    Size  Location     Type
  1520 ;;		None
  1521 ;; Auto vars:     Size  Location     Type
  1522 ;;		None
  1523 ;; Return value:  Size  Location     Type
  1524 ;;                  1    wreg      void 
  1525 ;; Registers used:
  1526 ;;		wreg, status,2, status,0, cstack
  1527 ;; Tracked objects:
  1528 ;;		On entry : 0/0
  1529 ;;		On exit  : 0/0
  1530 ;;		Unchanged: 0/0
  1531 ;; Data sizes:     COMRAM   BANK0   BANK1   BANK2   BANK3   BANK4   BANK5   BANK6   BANK7   BANK8   BANK9  BANK10  BANK1
      +1  BANK12  BANK13  BANK14  BANK15
  1532 ;;      Params:         0       0       0       0       0       0       0       0       0       0       0       0       
      +0       0       0       0       0
  1533 ;;      Locals:         0       0       0       0       0       0       0       0       0       0       0       0       
      +0       0       0       0       0
  1534 ;;      Temps:          0       0       0       0       0       0       0       0       0       0       0       0       
      +0       0       0       0       0
  1535 ;;      Totals:         0       0       0       0       0       0       0       0       0       0       0       0       
      +0       0       0       0       0
  1536 ;;Total ram usage:        0 bytes
  1537 ;; Hardware stack levels used: 1
  1538 ;; Hardware stack levels required when called: 5
  1539 ;; This function calls:
  1540 ;;		_ADCC_Initialize
  1541 ;;		_FVR_Initialize
  1542 ;;		_INTERRUPT_Initialize
  1543 ;;		_OSCILLATOR_Initialize
  1544 ;;		_PIN_MANAGER_Initialize
  1545 ;;		_PMD_Initialize
  1546 ;;		_SPI1_Initialize
  1547 ;;		_TMR2_Initialize
  1548 ;;		_UART1_Initialize
  1549 ;; This function is called by:
  1550 ;;		_main
  1551 ;; This function uses a non-reentrant model
  1552 ;;
  1553                           
  1554                           	psect	text5
  1555  00179C                     __ptext5:
  1556                           	callstack 0
  1557  00179C                     _SYSTEM_Initialize:
  1558                           	callstack 25
  1559  00179C                     
  1560                           ;mcc_generated_files/mcc.c: 52:     INTERRUPT_Initialize();
  1561  00179C  EC53  F00C         	call	_INTERRUPT_Initialize	;wreg free
  1562  0017A0                     
  1563                           ;mcc_generated_files/mcc.c: 53:     PMD_Initialize();
  1564  0017A0  ECE1  F00B         	call	_PMD_Initialize	;wreg free
  1565  0017A4                     
  1566                           ;mcc_generated_files/mcc.c: 54:     PIN_MANAGER_Initialize();
  1567  0017A4  EC61  F00A         	call	_PIN_MANAGER_Initialize	;wreg free
  1568  0017A8                     
  1569                           ;mcc_generated_files/mcc.c: 55:     OSCILLATOR_Initialize();
  1570  0017A8  EC1C  F00C         	call	_OSCILLATOR_Initialize	;wreg free
  1571  0017AC                     
  1572                           ;mcc_generated_files/mcc.c: 56:     FVR_Initialize();
  1573  0017AC  EC4C  F00C         	call	_FVR_Initialize	;wreg free
  1574  0017B0                     
  1575                           ;mcc_generated_files/mcc.c: 57:     ADCC_Initialize();
  1576  0017B0  ECB6  F00A         	call	_ADCC_Initialize	;wreg free
  1577  0017B4                     
  1578                           ;mcc_generated_files/mcc.c: 58:     TMR2_Initialize();
  1579  0017B4  ECF3  F00B         	call	_TMR2_Initialize	;wreg free
  1580  0017B8                     
  1581                           ;mcc_generated_files/mcc.c: 59:     UART1_Initialize();
  1582  0017B8  EC22  F00B         	call	_UART1_Initialize	;wreg free
  1583  0017BC                     
  1584                           ;mcc_generated_files/mcc.c: 60:     SPI1_Initialize();
  1585  0017BC  EC0F  F00C         	call	_SPI1_Initialize	;wreg free
  1586  0017C0  0012               	return		;funcret
  1587  0017C2                     __end_of_SYSTEM_Initialize:
  1588                           	callstack 0
  1589                           
  1590 ;; *************** function _UART1_Initialize *****************
  1591 ;; Defined at:
  1592 ;;		line 66 in file "mcc_generated_files/uart1.c"
  1593 ;; Parameters:    Size  Location     Type
  1594 ;;		None
  1595 ;; Auto vars:     Size  Location     Type
  1596 ;;		None
  1597 ;; Return value:  Size  Location     Type
  1598 ;;                  1    wreg      void 
  1599 ;; Registers used:
  1600 ;;		wreg, status,2, status,0, cstack
  1601 ;; Tracked objects:
  1602 ;;		On entry : 0/0
  1603 ;;		On exit  : 0/0
  1604 ;;		Unchanged: 0/0
  1605 ;; Data sizes:     COMRAM   BANK0   BANK1   BANK2   BANK3   BANK4   BANK5   BANK6   BANK7   BANK8   BANK9  BANK10  BANK1
      +1  BANK12  BANK13  BANK14  BANK15
  1606 ;;      Params:         0       0       0       0       0       0       0       0       0       0       0       0       
      +0       0       0       0       0
  1607 ;;      Locals:         0       0       0       0       0       0       0       0       0       0       0       0       
      +0       0       0       0       0
  1608 ;;      Temps:          0       0       0       0       0       0       0       0       0       0       0       0       
      +0       0       0       0       0
  1609 ;;      Totals:         0       0       0       0       0       0       0       0       0       0       0       0       
      +0       0       0       0       0
  1610 ;;Total ram usage:        0 bytes
  1611 ;; Hardware stack levels used: 1
  1612 ;; Hardware stack levels required when called: 4
  1613 ;; This function calls:
  1614 ;;		_UART1_SetErrorHandler
  1615 ;;		_UART1_SetFramingErrorHandler
  1616 ;;		_UART1_SetOverrunErrorHandler
  1617 ;; This function is called by:
  1618 ;;		_SYSTEM_Initialize
  1619 ;;		_main
  1620 ;; This function uses a non-reentrant model
  1621 ;;
  1622                           
  1623                           	psect	text6
  1624  001644                     __ptext6:
  1625                           	callstack 0
  1626  001644                     _UART1_Initialize:
  1627                           	callstack 26
  1628  001644                     
  1629                           ;mcc_generated_files/uart1.c: 73:     U1P1L = 0x00;
  1630  001644  0E00               	movlw	0
  1631  001646  013D               	movlb	61	; () banked
  1632  001648  6FEC               	movwf	236,b	;volatile
  1633                           
  1634                           ;mcc_generated_files/uart1.c: 76:     U1P1H = 0x00;
  1635  00164A  0E00               	movlw	0
  1636  00164C  6FED               	movwf	237,b	;volatile
  1637                           
  1638                           ;mcc_generated_files/uart1.c: 79:     U1P2L = 0x00;
  1639  00164E  0E00               	movlw	0
  1640  001650  6FEE               	movwf	238,b	;volatile
  1641                           
  1642                           ;mcc_generated_files/uart1.c: 82:     U1P2H = 0x00;
  1643  001652  0E00               	movlw	0
  1644  001654  6FEF               	movwf	239,b	;volatile
  1645                           
  1646                           ;mcc_generated_files/uart1.c: 85:     U1P3L = 0x00;
  1647  001656  0E00               	movlw	0
  1648  001658  6FF0               	movwf	240,b	;volatile
  1649                           
  1650                           ;mcc_generated_files/uart1.c: 88:     U1P3H = 0x00;
  1651  00165A  0E00               	movlw	0
  1652  00165C  6FF1               	movwf	241,b	;volatile
  1653                           
  1654                           ;mcc_generated_files/uart1.c: 91:     U1CON0 = 0xB0;
  1655  00165E  0EB0               	movlw	176
  1656  001660  6FF2               	movwf	242,b	;volatile
  1657                           
  1658                           ;mcc_generated_files/uart1.c: 94:     U1CON1 = 0x80;
  1659  001662  0E80               	movlw	128
  1660  001664  6FF3               	movwf	243,b	;volatile
  1661                           
  1662                           ;mcc_generated_files/uart1.c: 97:     U1CON2 = 0x00;
  1663  001666  0E00               	movlw	0
  1664  001668  6FF4               	movwf	244,b	;volatile
  1665                           
  1666                           ;mcc_generated_files/uart1.c: 100:     U1BRGL = 0x07;
  1667  00166A  0E07               	movlw	7
  1668  00166C  6FF5               	movwf	245,b	;volatile
  1669                           
  1670                           ;mcc_generated_files/uart1.c: 103:     U1BRGH = 0x00;
  1671  00166E  0E00               	movlw	0
  1672  001670  6FF6               	movwf	246,b	;volatile
  1673                           
  1674                           ;mcc_generated_files/uart1.c: 106:     U1FIFO = 0x00;
  1675  001672  0E00               	movlw	0
  1676  001674  6FF7               	movwf	247,b	;volatile
  1677                           
  1678                           ;mcc_generated_files/uart1.c: 109:     U1UIR = 0x00;
  1679  001676  0E00               	movlw	0
  1680  001678  6FF8               	movwf	248,b	;volatile
  1681                           
  1682                           ;mcc_generated_files/uart1.c: 112:     U1ERRIR = 0x00;
  1683  00167A  0E00               	movlw	0
  1684  00167C  6FF9               	movwf	249,b	;volatile
  1685                           
  1686                           ;mcc_generated_files/uart1.c: 115:     U1ERRIE = 0x00;
  1687  00167E  0E00               	movlw	0
  1688  001680  6FFA               	movwf	250,b	;volatile
  1689  001682                     
  1690                           ; BSR set to: 61
  1691                           ;mcc_generated_files/uart1.c: 118:     UART1_SetFramingErrorHandler(UART1_DefaultFraming
      +                          ErrorHandler);
  1692  001682  0E00               	movlw	0
  1693  001684  6E03               	movwf	UART1_SetFramingErrorHandler@interruptHandler^0,c
  1694  001686  0E00               	movlw	0
  1695  001688  6E04               	movwf	(UART1_SetFramingErrorHandler@interruptHandler+1)^0,c
  1696  00168A  EC38  F00C         	call	_UART1_SetFramingErrorHandler	;wreg free
  1697  00168E                     
  1698                           ;mcc_generated_files/uart1.c: 119:     UART1_SetOverrunErrorHandler(UART1_DefaultOverrun
      +                          ErrorHandler);
  1699  00168E  0E00               	movlw	0
  1700  001690  6E03               	movwf	UART1_SetOverrunErrorHandler@interruptHandler^0,c
  1701  001692  0E00               	movlw	0
  1702  001694  6E04               	movwf	(UART1_SetOverrunErrorHandler@interruptHandler+1)^0,c
  1703  001696  EC33  F00C         	call	_UART1_SetOverrunErrorHandler	;wreg free
  1704  00169A                     
  1705                           ;mcc_generated_files/uart1.c: 120:     UART1_SetErrorHandler(UART1_DefaultErrorHandler);
  1706  00169A  0E00               	movlw	0
  1707  00169C  6E03               	movwf	UART1_SetErrorHandler@interruptHandler^0,c
  1708  00169E  0E00               	movlw	0
  1709  0016A0  6E04               	movwf	(UART1_SetErrorHandler@interruptHandler+1)^0,c
  1710  0016A2  EC3D  F00C         	call	_UART1_SetErrorHandler	;wreg free
  1711  0016A6                     
  1712                           ;mcc_generated_files/uart1.c: 122:     uart1RxLastError.status = 0;
  1713  0016A6  0E00               	movlw	0
  1714  0016A8  6E41               	movwf	_uart1RxLastError^0,c	;volatile
  1715  0016AA  0012               	return		;funcret
  1716  0016AC                     __end_of_UART1_Initialize:
  1717                           	callstack 0
  1718                           
  1719 ;; *************** function _UART1_SetOverrunErrorHandler *****************
  1720 ;; Defined at:
  1721 ;;		line 194 in file "mcc_generated_files/uart1.c"
  1722 ;; Parameters:    Size  Location     Type
  1723 ;;  interruptHan    2    2[COMRAM] PTR FTN()void 
  1724 ;;		 -> UART1_DefaultOverrunErrorHandler(1), 
  1725 ;; Auto vars:     Size  Location     Type
  1726 ;;		None
  1727 ;; Return value:  Size  Location     Type
  1728 ;;                  1    wreg      void 
  1729 ;; Registers used:
  1730 ;;		wreg, status,2, status,0
  1731 ;; Tracked objects:
  1732 ;;		On entry : 0/0
  1733 ;;		On exit  : 0/0
  1734 ;;		Unchanged: 0/0
  1735 ;; Data sizes:     COMRAM   BANK0   BANK1   BANK2   BANK3   BANK4   BANK5   BANK6   BANK7   BANK8   BANK9  BANK10  BANK1
      +1  BANK12  BANK13  BANK14  BANK15
  1736 ;;      Params:         2       0       0       0       0       0       0       0       0       0       0       0       
      +0       0       0       0       0
  1737 ;;      Locals:         0       0       0       0       0       0       0       0       0       0       0       0       
      +0       0       0       0       0
  1738 ;;      Temps:          0       0       0       0       0       0       0       0       0       0       0       0       
      +0       0       0       0       0
  1739 ;;      Totals:         2       0       0       0       0       0       0       0       0       0       0       0       
      +0       0       0       0       0
  1740 ;;Total ram usage:        2 bytes
  1741 ;; Hardware stack levels used: 1
  1742 ;; Hardware stack levels required when called: 3
  1743 ;; This function calls:
  1744 ;;		Nothing
  1745 ;; This function is called by:
  1746 ;;		_UART1_Initialize
  1747 ;; This function uses a non-reentrant model
  1748 ;;
  1749                           
  1750                           	psect	text7
  1751  001866                     __ptext7:
  1752                           	callstack 0
  1753  001866                     _UART1_SetOverrunErrorHandler:
  1754                           	callstack 26
  1755  001866                     
  1756                           ;mcc_generated_files/uart1.c: 195:     UART1_OverrunErrorHandler = interruptHandler;
  1757  001866  C003  F0B5         	movff	UART1_SetOverrunErrorHandler@interruptHandler,_UART1_OverrunErrorHandler
  1758  00186A  C004  F0B6         	movff	UART1_SetOverrunErrorHandler@interruptHandler+1,_UART1_OverrunErrorHandler+1
  1759  00186E  0012               	return		;funcret
  1760  001870                     __end_of_UART1_SetOverrunErrorHandler:
  1761                           	callstack 0
  1762                           
  1763 ;; *************** function _UART1_SetFramingErrorHandler *****************
  1764 ;; Defined at:
  1765 ;;		line 190 in file "mcc_generated_files/uart1.c"
  1766 ;; Parameters:    Size  Location     Type
  1767 ;;  interruptHan    2    2[COMRAM] PTR FTN()void 
  1768 ;;		 -> UART1_DefaultFramingErrorHandler(1), 
  1769 ;; Auto vars:     Size  Location     Type
  1770 ;;		None
  1771 ;; Return value:  Size  Location     Type
  1772 ;;                  1    wreg      void 
  1773 ;; Registers used:
  1774 ;;		wreg, status,2, status,0
  1775 ;; Tracked objects:
  1776 ;;		On entry : 0/0
  1777 ;;		On exit  : 0/0
  1778 ;;		Unchanged: 0/0
  1779 ;; Data sizes:     COMRAM   BANK0   BANK1   BANK2   BANK3   BANK4   BANK5   BANK6   BANK7   BANK8   BANK9  BANK10  BANK1
      +1  BANK12  BANK13  BANK14  BANK15
  1780 ;;      Params:         2       0       0       0       0       0       0       0       0       0       0       0       
      +0       0       0       0       0
  1781 ;;      Locals:         0       0       0       0       0       0       0       0       0       0       0       0       
      +0       0       0       0       0
  1782 ;;      Temps:          0       0       0       0       0       0       0       0       0       0       0       0       
      +0       0       0       0       0
  1783 ;;      Totals:         2       0       0       0       0       0       0       0       0       0       0       0       
      +0       0       0       0       0
  1784 ;;Total ram usage:        2 bytes
  1785 ;; Hardware stack levels used: 1
  1786 ;; Hardware stack levels required when called: 3
  1787 ;; This function calls:
  1788 ;;		Nothing
  1789 ;; This function is called by:
  1790 ;;		_UART1_Initialize
  1791 ;; This function uses a non-reentrant model
  1792 ;;
  1793                           
  1794                           	psect	text8
  1795  001870                     __ptext8:
  1796                           	callstack 0
  1797  001870                     _UART1_SetFramingErrorHandler:
  1798                           	callstack 26
  1799  001870                     
  1800                           ;mcc_generated_files/uart1.c: 191:     UART1_FramingErrorHandler = interruptHandler;
  1801  001870  C003  F046         	movff	UART1_SetFramingErrorHandler@interruptHandler,_UART1_FramingErrorHandler
  1802  001874  C004  F047         	movff	UART1_SetFramingErrorHandler@interruptHandler+1,_UART1_FramingErrorHandler+1
  1803  001878  0012               	return		;funcret
  1804  00187A                     __end_of_UART1_SetFramingErrorHandler:
  1805                           	callstack 0
  1806                           
  1807 ;; *************** function _UART1_SetErrorHandler *****************
  1808 ;; Defined at:
  1809 ;;		line 198 in file "mcc_generated_files/uart1.c"
  1810 ;; Parameters:    Size  Location     Type
  1811 ;;  interruptHan    2    2[COMRAM] PTR FTN()void 
  1812 ;;		 -> UART1_DefaultErrorHandler(1), 
  1813 ;; Auto vars:     Size  Location     Type
  1814 ;;		None
  1815 ;; Return value:  Size  Location     Type
  1816 ;;                  1    wreg      void 
  1817 ;; Registers used:
  1818 ;;		wreg, status,2, status,0
  1819 ;; Tracked objects:
  1820 ;;		On entry : 0/0
  1821 ;;		On exit  : 0/0
  1822 ;;		Unchanged: 0/0
  1823 ;; Data sizes:     COMRAM   BANK0   BANK1   BANK2   BANK3   BANK4   BANK5   BANK6   BANK7   BANK8   BANK9  BANK10  BANK1
      +1  BANK12  BANK13  BANK14  BANK15
  1824 ;;      Params:         2       0       0       0       0       0       0       0       0       0       0       0       
      +0       0       0       0       0
  1825 ;;      Locals:         0       0       0       0       0       0       0       0       0       0       0       0       
      +0       0       0       0       0
  1826 ;;      Temps:          0       0       0       0       0       0       0       0       0       0       0       0       
      +0       0       0       0       0
  1827 ;;      Totals:         2       0       0       0       0       0       0       0       0       0       0       0       
      +0       0       0       0       0
  1828 ;;Total ram usage:        2 bytes
  1829 ;; Hardware stack levels used: 1
  1830 ;; Hardware stack levels required when called: 3
  1831 ;; This function calls:
  1832 ;;		Nothing
  1833 ;; This function is called by:
  1834 ;;		_UART1_Initialize
  1835 ;; This function uses a non-reentrant model
  1836 ;;
  1837                           
  1838                           	psect	text9
  1839  00187A                     __ptext9:
  1840                           	callstack 0
  1841  00187A                     _UART1_SetErrorHandler:
  1842                           	callstack 26
  1843  00187A                     
  1844                           ;mcc_generated_files/uart1.c: 199:     UART1_ErrorHandler = interruptHandler;
  1845  00187A  C003  F0B3         	movff	UART1_SetErrorHandler@interruptHandler,_UART1_ErrorHandler
  1846  00187E  C004  F0B4         	movff	UART1_SetErrorHandler@interruptHandler+1,_UART1_ErrorHandler+1
  1847  001882  0012               	return		;funcret
  1848  001884                     __end_of_UART1_SetErrorHandler:
  1849                           	callstack 0
  1850                           
  1851 ;; *************** function _TMR2_Initialize *****************
  1852 ;; Defined at:
  1853 ;;		line 62 in file "mcc_generated_files/tmr2.c"
  1854 ;; Parameters:    Size  Location     Type
  1855 ;;		None
  1856 ;; Auto vars:     Size  Location     Type
  1857 ;;		None
  1858 ;; Return value:  Size  Location     Type
  1859 ;;                  1    wreg      void 
  1860 ;; Registers used:
  1861 ;;		wreg, status,2
  1862 ;; Tracked objects:
  1863 ;;		On entry : 0/0
  1864 ;;		On exit  : 0/0
  1865 ;;		Unchanged: 0/0
  1866 ;; Data sizes:     COMRAM   BANK0   BANK1   BANK2   BANK3   BANK4   BANK5   BANK6   BANK7   BANK8   BANK9  BANK10  BANK1
      +1  BANK12  BANK13  BANK14  BANK15
  1867 ;;      Params:         0       0       0       0       0       0       0       0       0       0       0       0       
      +0       0       0       0       0
  1868 ;;      Locals:         0       0       0       0       0       0       0       0       0       0       0       0       
      +0       0       0       0       0
  1869 ;;      Temps:          0       0       0       0       0       0       0       0       0       0       0       0       
      +0       0       0       0       0
  1870 ;;      Totals:         0       0       0       0       0       0       0       0       0       0       0       0       
      +0       0       0       0       0
  1871 ;;Total ram usage:        0 bytes
  1872 ;; Hardware stack levels used: 1
  1873 ;; Hardware stack levels required when called: 3
  1874 ;; This function calls:
  1875 ;;		Nothing
  1876 ;; This function is called by:
  1877 ;;		_SYSTEM_Initialize
  1878 ;; This function uses a non-reentrant model
  1879 ;;
  1880                           
  1881                           	psect	text10
  1882  0017E6                     __ptext10:
  1883                           	callstack 0
  1884  0017E6                     _TMR2_Initialize:
  1885                           	callstack 26
  1886  0017E6                     
  1887                           ;mcc_generated_files/tmr2.c: 67:     T2CLKCON = 0x01;
  1888  0017E6  0E01               	movlw	1
  1889  0017E8  6EAE               	movwf	174,c	;volatile
  1890                           
  1891                           ;mcc_generated_files/tmr2.c: 70:     T2HLT = 0x00;
  1892  0017EA  0E00               	movlw	0
  1893  0017EC  6EAD               	movwf	173,c	;volatile
  1894                           
  1895                           ;mcc_generated_files/tmr2.c: 73:     T2RST = 0x00;
  1896  0017EE  0E00               	movlw	0
  1897  0017F0  6EAF               	movwf	175,c	;volatile
  1898                           
  1899                           ;mcc_generated_files/tmr2.c: 76:     T2PR = 0xCF;
  1900  0017F2  0ECF               	movlw	207
  1901  0017F4  6EAB               	movwf	171,c	;volatile
  1902                           
  1903                           ;mcc_generated_files/tmr2.c: 79:     T2TMR = 0x00;
  1904  0017F6  0E00               	movlw	0
  1905  0017F8  6EAA               	movwf	170,c	;volatile
  1906  0017FA                     
  1907                           ;mcc_generated_files/tmr2.c: 82:     PIR4bits.TMR2IF = 0;
  1908  0017FA  0139               	movlb	57	; () banked
  1909  0017FC  95A4               	bcf	164,2,b	;volatile
  1910                           
  1911                           ;mcc_generated_files/tmr2.c: 85:     T2CON = 0xDE;
  1912  0017FE  0EDE               	movlw	222
  1913  001800  6EAC               	movwf	172,c	;volatile
  1914  001802                     
  1915                           ; BSR set to: 57
  1916  001802  0012               	return		;funcret
  1917  001804                     __end_of_TMR2_Initialize:
  1918                           	callstack 0
  1919                           
  1920 ;; *************** function _SPI1_Initialize *****************
  1921 ;; Defined at:
  1922 ;;		line 64 in file "mcc_generated_files/spi1.c"
  1923 ;; Parameters:    Size  Location     Type
  1924 ;;		None
  1925 ;; Auto vars:     Size  Location     Type
  1926 ;;		None
  1927 ;; Return value:  Size  Location     Type
  1928 ;;                  1    wreg      void 
  1929 ;; Registers used:
  1930 ;;		wreg, status,2
  1931 ;; Tracked objects:
  1932 ;;		On entry : 0/0
  1933 ;;		On exit  : 0/0
  1934 ;;		Unchanged: 0/0
  1935 ;; Data sizes:     COMRAM   BANK0   BANK1   BANK2   BANK3   BANK4   BANK5   BANK6   BANK7   BANK8   BANK9  BANK10  BANK1
      +1  BANK12  BANK13  BANK14  BANK15
  1936 ;;      Params:         0       0       0       0       0       0       0       0       0       0       0       0       
      +0       0       0       0       0
  1937 ;;      Locals:         0       0       0       0       0       0       0       0       0       0       0       0       
      +0       0       0       0       0
  1938 ;;      Temps:          0       0       0       0       0       0       0       0       0       0       0       0       
      +0       0       0       0       0
  1939 ;;      Totals:         0       0       0       0       0       0       0       0       0       0       0       0       
      +0       0       0       0       0
  1940 ;;Total ram usage:        0 bytes
  1941 ;; Hardware stack levels used: 1
  1942 ;; Hardware stack levels required when called: 3
  1943 ;; This function calls:
  1944 ;;		Nothing
  1945 ;; This function is called by:
  1946 ;;		_SYSTEM_Initialize
  1947 ;; This function uses a non-reentrant model
  1948 ;;
  1949                           
  1950                           	psect	text11
  1951  00181E                     __ptext11:
  1952                           	callstack 0
  1953  00181E                     _SPI1_Initialize:
  1954                           	callstack 26
  1955  00181E                     
  1956                           ;mcc_generated_files/spi1.c: 67:     SPI1CON0 = 0x83;
  1957  00181E  0E83               	movlw	131
  1958  001820  013D               	movlb	61	; () banked
  1959  001822  6F14               	movwf	20,b	;volatile
  1960                           
  1961                           ;mcc_generated_files/spi1.c: 69:     SPI1CON1 = 0x40;
  1962  001824  0E40               	movlw	64
  1963  001826  6F15               	movwf	21,b	;volatile
  1964                           
  1965                           ;mcc_generated_files/spi1.c: 71:     SPI1CON2 = 0x02;
  1966  001828  0E02               	movlw	2
  1967  00182A  6F16               	movwf	22,b	;volatile
  1968                           
  1969                           ;mcc_generated_files/spi1.c: 73:     SPI1CLK = 0x00;
  1970  00182C  0E00               	movlw	0
  1971  00182E  6F1C               	movwf	28,b	;volatile
  1972                           
  1973                           ;mcc_generated_files/spi1.c: 75:     SPI1BAUD = 0x20;
  1974  001830  0E20               	movlw	32
  1975  001832  6F19               	movwf	25,b	;volatile
  1976  001834                     
  1977                           ; BSR set to: 61
  1978                           ;mcc_generated_files/spi1.c: 76:     TRISCbits.TRISC3 = 0;
  1979  001834  96C4               	bcf	196,3,c	;volatile
  1980  001836                     
  1981                           ; BSR set to: 61
  1982  001836  0012               	return		;funcret
  1983  001838                     __end_of_SPI1_Initialize:
  1984                           	callstack 0
  1985                           
  1986 ;; *************** function _PMD_Initialize *****************
  1987 ;; Defined at:
  1988 ;;		line 77 in file "mcc_generated_files/mcc.c"
  1989 ;; Parameters:    Size  Location     Type
  1990 ;;		None
  1991 ;; Auto vars:     Size  Location     Type
  1992 ;;		None
  1993 ;; Return value:  Size  Location     Type
  1994 ;;                  1    wreg      void 
  1995 ;; Registers used:
  1996 ;;		wreg, status,2
  1997 ;; Tracked objects:
  1998 ;;		On entry : 0/0
  1999 ;;		On exit  : 0/0
  2000 ;;		Unchanged: 0/0
  2001 ;; Data sizes:     COMRAM   BANK0   BANK1   BANK2   BANK3   BANK4   BANK5   BANK6   BANK7   BANK8   BANK9  BANK10  BANK1
      +1  BANK12  BANK13  BANK14  BANK15
  2002 ;;      Params:         0       0       0       0       0       0       0       0       0       0       0       0       
      +0       0       0       0       0
  2003 ;;      Locals:         0       0       0       0       0       0       0       0       0       0       0       0       
      +0       0       0       0       0
  2004 ;;      Temps:          0       0       0       0       0       0       0       0       0       0       0       0       
      +0       0       0       0       0
  2005 ;;      Totals:         0       0       0       0       0       0       0       0       0       0       0       0       
      +0       0       0       0       0
  2006 ;;Total ram usage:        0 bytes
  2007 ;; Hardware stack levels used: 1
  2008 ;; Hardware stack levels required when called: 3
  2009 ;; This function calls:
  2010 ;;		Nothing
  2011 ;; This function is called by:
  2012 ;;		_SYSTEM_Initialize
  2013 ;; This function uses a non-reentrant model
  2014 ;;
  2015                           
  2016                           	psect	text12
  2017  0017C2                     __ptext12:
  2018                           	callstack 0
  2019  0017C2                     _PMD_Initialize:
  2020                           	callstack 26
  2021  0017C2                     
  2022                           ;mcc_generated_files/mcc.c: 80:     PMD0 = 0x00;
  2023  0017C2  0E00               	movlw	0
  2024  0017C4  0139               	movlb	57	; () banked
  2025  0017C6  6FC0               	movwf	192,b	;volatile
  2026                           
  2027                           ;mcc_generated_files/mcc.c: 82:     PMD1 = 0x00;
  2028  0017C8  0E00               	movlw	0
  2029  0017CA  6FC1               	movwf	193,b	;volatile
  2030                           
  2031                           ;mcc_generated_files/mcc.c: 84:     PMD2 = 0x00;
  2032  0017CC  0E00               	movlw	0
  2033  0017CE  6FC2               	movwf	194,b	;volatile
  2034                           
  2035                           ;mcc_generated_files/mcc.c: 86:     PMD3 = 0x00;
  2036  0017D0  0E00               	movlw	0
  2037  0017D2  6FC3               	movwf	195,b	;volatile
  2038                           
  2039                           ;mcc_generated_files/mcc.c: 88:     PMD4 = 0x00;
  2040  0017D4  0E00               	movlw	0
  2041  0017D6  6FC4               	movwf	196,b	;volatile
  2042                           
  2043                           ;mcc_generated_files/mcc.c: 90:     PMD5 = 0x00;
  2044  0017D8  0E00               	movlw	0
  2045  0017DA  6FC5               	movwf	197,b	;volatile
  2046                           
  2047                           ;mcc_generated_files/mcc.c: 92:     PMD6 = 0x00;
  2048  0017DC  0E00               	movlw	0
  2049  0017DE  6FC6               	movwf	198,b	;volatile
  2050                           
  2051                           ;mcc_generated_files/mcc.c: 94:     PMD7 = 0x00;
  2052  0017E0  0E00               	movlw	0
  2053  0017E2  6FC7               	movwf	199,b	;volatile
  2054  0017E4                     
  2055                           ; BSR set to: 57
  2056  0017E4  0012               	return		;funcret
  2057  0017E6                     __end_of_PMD_Initialize:
  2058                           	callstack 0
  2059                           
  2060 ;; *************** function _PIN_MANAGER_Initialize *****************
  2061 ;; Defined at:
  2062 ;;		line 55 in file "mcc_generated_files/pin_manager.c"
  2063 ;; Parameters:    Size  Location     Type
  2064 ;;		None
  2065 ;; Auto vars:     Size  Location     Type
  2066 ;;		None
  2067 ;; Return value:  Size  Location     Type
  2068 ;;                  1    wreg      void 
  2069 ;; Registers used:
  2070 ;;		wreg, status,2
  2071 ;; Tracked objects:
  2072 ;;		On entry : 0/0
  2073 ;;		On exit  : 0/0
  2074 ;;		Unchanged: 0/0
  2075 ;; Data sizes:     COMRAM   BANK0   BANK1   BANK2   BANK3   BANK4   BANK5   BANK6   BANK7   BANK8   BANK9  BANK10  BANK1
      +1  BANK12  BANK13  BANK14  BANK15
  2076 ;;      Params:         0       0       0       0       0       0       0       0       0       0       0       0       
      +0       0       0       0       0
  2077 ;;      Locals:         0       0       0       0       0       0       0       0       0       0       0       0       
      +0       0       0       0       0
  2078 ;;      Temps:          0       0       0       0       0       0       0       0       0       0       0       0       
      +0       0       0       0       0
  2079 ;;      Totals:         0       0       0       0       0       0       0       0       0       0       0       0       
      +0       0       0       0       0
  2080 ;;Total ram usage:        0 bytes
  2081 ;; Hardware stack levels used: 1
  2082 ;; Hardware stack levels required when called: 3
  2083 ;; This function calls:
  2084 ;;		Nothing
  2085 ;; This function is called by:
  2086 ;;		_SYSTEM_Initialize
  2087 ;; This function uses a non-reentrant model
  2088 ;;
  2089                           
  2090                           	psect	text13
  2091  0014C2                     __ptext13:
  2092                           	callstack 0
  2093  0014C2                     _PIN_MANAGER_Initialize:
  2094                           	callstack 26
  2095  0014C2                     
  2096                           ;mcc_generated_files/pin_manager.c: 60:     LATE = 0x01;
  2097  0014C2  0E01               	movlw	1
  2098  0014C4  6EBE               	movwf	190,c	;volatile
  2099                           
  2100                           ;mcc_generated_files/pin_manager.c: 61:     LATD = 0x00;
  2101  0014C6  0E00               	movlw	0
  2102  0014C8  6EBD               	movwf	189,c	;volatile
  2103                           
  2104                           ;mcc_generated_files/pin_manager.c: 62:     LATA = 0x00;
  2105  0014CA  0E00               	movlw	0
  2106  0014CC  6EBA               	movwf	186,c	;volatile
  2107                           
  2108                           ;mcc_generated_files/pin_manager.c: 63:     LATB = 0x10;
  2109  0014CE  0E10               	movlw	16
  2110  0014D0  6EBB               	movwf	187,c	;volatile
  2111                           
  2112                           ;mcc_generated_files/pin_manager.c: 64:     LATC = 0x00;
  2113  0014D2  0E00               	movlw	0
  2114  0014D4  6EBC               	movwf	188,c	;volatile
  2115                           
  2116                           ;mcc_generated_files/pin_manager.c: 69:     TRISE = 0x06;
  2117  0014D6  0E06               	movlw	6
  2118  0014D8  6EC6               	movwf	198,c	;volatile
  2119  0014DA                     
  2120                           ;mcc_generated_files/pin_manager.c: 70:     TRISA = 0xFF;
  2121  0014DA  68C2               	setf	194,c	;volatile
  2122                           
  2123                           ;mcc_generated_files/pin_manager.c: 71:     TRISB = 0xEF;
  2124  0014DC  0EEF               	movlw	239
  2125  0014DE  6EC3               	movwf	195,c	;volatile
  2126                           
  2127                           ;mcc_generated_files/pin_manager.c: 72:     TRISC = 0x97;
  2128  0014E0  0E97               	movlw	151
  2129  0014E2  6EC4               	movwf	196,c	;volatile
  2130                           
  2131                           ;mcc_generated_files/pin_manager.c: 73:     TRISD = 0xEF;
  2132  0014E4  0EEF               	movlw	239
  2133  0014E6  6EC5               	movwf	197,c	;volatile
  2134  0014E8                     
  2135                           ;mcc_generated_files/pin_manager.c: 78:     ANSELD = 0xFF;
  2136  0014E8  013A               	movlb	58	; () banked
  2137  0014EA  6970               	setf	112,b	;volatile
  2138                           
  2139                           ;mcc_generated_files/pin_manager.c: 79:     ANSELC = 0x67;
  2140  0014EC  0E67               	movlw	103
  2141  0014EE  6F60               	movwf	96,b	;volatile
  2142                           
  2143                           ;mcc_generated_files/pin_manager.c: 80:     ANSELB = 0xEF;
  2144  0014F0  0EEF               	movlw	239
  2145  0014F2  6F50               	movwf	80,b	;volatile
  2146                           
  2147                           ;mcc_generated_files/pin_manager.c: 81:     ANSELE = 0x06;
  2148  0014F4  0E06               	movlw	6
  2149  0014F6  6F80               	movwf	128,b	;volatile
  2150  0014F8                     
  2151                           ; BSR set to: 58
  2152                           ;mcc_generated_files/pin_manager.c: 82:     ANSELA = 0xFF;
  2153  0014F8  6940               	setf	64,b	;volatile
  2154                           
  2155                           ;mcc_generated_files/pin_manager.c: 87:     WPUD = 0x00;
  2156  0014FA  0E00               	movlw	0
  2157  0014FC  6F71               	movwf	113,b	;volatile
  2158                           
  2159                           ;mcc_generated_files/pin_manager.c: 88:     WPUE = 0x00;
  2160  0014FE  0E00               	movlw	0
  2161  001500  6F81               	movwf	129,b	;volatile
  2162                           
  2163                           ;mcc_generated_files/pin_manager.c: 89:     WPUB = 0x00;
  2164  001502  0E00               	movlw	0
  2165  001504  6F51               	movwf	81,b	;volatile
  2166                           
  2167                           ;mcc_generated_files/pin_manager.c: 90:     WPUA = 0x00;
  2168  001506  0E00               	movlw	0
  2169  001508  6F41               	movwf	65,b	;volatile
  2170                           
  2171                           ;mcc_generated_files/pin_manager.c: 91:     WPUC = 0x00;
  2172  00150A  0E00               	movlw	0
  2173  00150C  6F61               	movwf	97,b	;volatile
  2174                           
  2175                           ;mcc_generated_files/pin_manager.c: 96:     RB1I2C = 0x00;
  2176  00150E  0E00               	movlw	0
  2177  001510  6F5A               	movwf	90,b	;volatile
  2178                           
  2179                           ;mcc_generated_files/pin_manager.c: 97:     RB2I2C = 0x00;
  2180  001512  0E00               	movlw	0
  2181  001514  6F5B               	movwf	91,b	;volatile
  2182                           
  2183                           ;mcc_generated_files/pin_manager.c: 98:     RC3I2C = 0x00;
  2184  001516  0E00               	movlw	0
  2185  001518  6F6A               	movwf	106,b	;volatile
  2186                           
  2187                           ;mcc_generated_files/pin_manager.c: 99:     RC4I2C = 0x00;
  2188  00151A  0E00               	movlw	0
  2189  00151C  6F6B               	movwf	107,b	;volatile
  2190                           
  2191                           ;mcc_generated_files/pin_manager.c: 100:     RD0I2C = 0x00;
  2192  00151E  0E00               	movlw	0
  2193  001520  6F7A               	movwf	122,b	;volatile
  2194                           
  2195                           ;mcc_generated_files/pin_manager.c: 101:     RD1I2C = 0x00;
  2196  001522  0E00               	movlw	0
  2197  001524  6F7B               	movwf	123,b	;volatile
  2198                           
  2199                           ;mcc_generated_files/pin_manager.c: 106:     ODCONE = 0x00;
  2200  001526  0E00               	movlw	0
  2201  001528  6F82               	movwf	130,b	;volatile
  2202                           
  2203                           ;mcc_generated_files/pin_manager.c: 107:     ODCONA = 0x00;
  2204  00152A  0E00               	movlw	0
  2205  00152C  6F42               	movwf	66,b	;volatile
  2206                           
  2207                           ;mcc_generated_files/pin_manager.c: 108:     ODCONB = 0x00;
  2208  00152E  0E00               	movlw	0
  2209  001530  6F52               	movwf	82,b	;volatile
  2210                           
  2211                           ;mcc_generated_files/pin_manager.c: 109:     ODCONC = 0x00;
  2212  001532  0E00               	movlw	0
  2213  001534  6F62               	movwf	98,b	;volatile
  2214                           
  2215                           ;mcc_generated_files/pin_manager.c: 110:     ODCOND = 0x00;
  2216  001536  0E00               	movlw	0
  2217  001538  6F72               	movwf	114,b	;volatile
  2218  00153A                     
  2219                           ; BSR set to: 58
  2220                           ;mcc_generated_files/pin_manager.c: 115:     SLRCONA = 0xFF;
  2221  00153A  6943               	setf	67,b	;volatile
  2222  00153C                     
  2223                           ; BSR set to: 58
  2224                           ;mcc_generated_files/pin_manager.c: 116:     SLRCONB = 0xFF;
  2225  00153C  6953               	setf	83,b	;volatile
  2226  00153E                     
  2227                           ; BSR set to: 58
  2228                           ;mcc_generated_files/pin_manager.c: 117:     SLRCONC = 0xFF;
  2229  00153E  6963               	setf	99,b	;volatile
  2230  001540                     
  2231                           ; BSR set to: 58
  2232                           ;mcc_generated_files/pin_manager.c: 118:     SLRCOND = 0xFF;
  2233  001540  6973               	setf	115,b	;volatile
  2234                           
  2235                           ;mcc_generated_files/pin_manager.c: 119:     SLRCONE = 0x07;
  2236  001542  0E07               	movlw	7
  2237  001544  6F83               	movwf	131,b	;volatile
  2238  001546                     
  2239                           ; BSR set to: 58
  2240                           ;mcc_generated_files/pin_manager.c: 124:     INLVLA = 0xFF;
  2241  001546  6944               	setf	68,b	;volatile
  2242  001548                     
  2243                           ; BSR set to: 58
  2244                           ;mcc_generated_files/pin_manager.c: 125:     INLVLB = 0xFF;
  2245  001548  6954               	setf	84,b	;volatile
  2246  00154A                     
  2247                           ; BSR set to: 58
  2248                           ;mcc_generated_files/pin_manager.c: 126:     INLVLC = 0xFF;
  2249  00154A  6964               	setf	100,b	;volatile
  2250  00154C                     
  2251                           ; BSR set to: 58
  2252                           ;mcc_generated_files/pin_manager.c: 127:     INLVLD = 0xFF;
  2253  00154C  6974               	setf	116,b	;volatile
  2254                           
  2255                           ;mcc_generated_files/pin_manager.c: 128:     INLVLE = 0x0F;
  2256  00154E  0E0F               	movlw	15
  2257  001550  6F84               	movwf	132,b	;volatile
  2258                           
  2259                           ;mcc_generated_files/pin_manager.c: 137:     SPI1SCKPPS = 0x13;
  2260  001552  0E13               	movlw	19
  2261  001554  6FDE               	movwf	222,b	;volatile
  2262                           
  2263                           ;mcc_generated_files/pin_manager.c: 138:     RC3PPS = 0x1E;
  2264  001556  0E1E               	movlw	30
  2265  001558  6F13               	movwf	19,b	;volatile
  2266                           
  2267                           ;mcc_generated_files/pin_manager.c: 139:     RC5PPS = 0x1F;
  2268  00155A  0E1F               	movlw	31
  2269  00155C  6F15               	movwf	21,b	;volatile
  2270                           
  2271                           ;mcc_generated_files/pin_manager.c: 140:     RC6PPS = 0x13;
  2272  00155E  0E13               	movlw	19
  2273  001560  6F16               	movwf	22,b	;volatile
  2274                           
  2275                           ;mcc_generated_files/pin_manager.c: 141:     U1RXPPS = 0x17;
  2276  001562  0E17               	movlw	23
  2277  001564  6FE5               	movwf	229,b	;volatile
  2278                           
  2279                           ;mcc_generated_files/pin_manager.c: 142:     SPI1SDIPPS = 0x14;
  2280  001566  0E14               	movlw	20
  2281  001568  6FDF               	movwf	223,b	;volatile
  2282  00156A                     
  2283                           ; BSR set to: 58
  2284  00156A  0012               	return		;funcret
  2285  00156C                     __end_of_PIN_MANAGER_Initialize:
  2286                           	callstack 0
  2287                           
  2288 ;; *************** function _OSCILLATOR_Initialize *****************
  2289 ;; Defined at:
  2290 ;;		line 63 in file "mcc_generated_files/mcc.c"
  2291 ;; Parameters:    Size  Location     Type
  2292 ;;		None
  2293 ;; Auto vars:     Size  Location     Type
  2294 ;;		None
  2295 ;; Return value:  Size  Location     Type
  2296 ;;                  1    wreg      void 
  2297 ;; Registers used:
  2298 ;;		wreg, status,2
  2299 ;; Tracked objects:
  2300 ;;		On entry : 0/0
  2301 ;;		On exit  : 0/0
  2302 ;;		Unchanged: 0/0
  2303 ;; Data sizes:     COMRAM   BANK0   BANK1   BANK2   BANK3   BANK4   BANK5   BANK6   BANK7   BANK8   BANK9  BANK10  BANK1
      +1  BANK12  BANK13  BANK14  BANK15
  2304 ;;      Params:         0       0       0       0       0       0       0       0       0       0       0       0       
      +0       0       0       0       0
  2305 ;;      Locals:         0       0       0       0       0       0       0       0       0       0       0       0       
      +0       0       0       0       0
  2306 ;;      Temps:          0       0       0       0       0       0       0       0       0       0       0       0       
      +0       0       0       0       0
  2307 ;;      Totals:         0       0       0       0       0       0       0       0       0       0       0       0       
      +0       0       0       0       0
  2308 ;;Total ram usage:        0 bytes
  2309 ;; Hardware stack levels used: 1
  2310 ;; Hardware stack levels required when called: 3
  2311 ;; This function calls:
  2312 ;;		Nothing
  2313 ;; This function is called by:
  2314 ;;		_SYSTEM_Initialize
  2315 ;; This function uses a non-reentrant model
  2316 ;;
  2317                           
  2318                           	psect	text14
  2319  001838                     __ptext14:
  2320                           	callstack 0
  2321  001838                     _OSCILLATOR_Initialize:
  2322                           	callstack 26
  2323  001838                     
  2324                           ;mcc_generated_files/mcc.c: 66:     OSCCON1 = 0x60;
  2325  001838  0E60               	movlw	96
  2326  00183A  0139               	movlb	57	; () banked
  2327  00183C  6FD9               	movwf	217,b	;volatile
  2328                           
  2329                           ;mcc_generated_files/mcc.c: 68:     OSCCON3 = 0x00;
  2330  00183E  0E00               	movlw	0
  2331  001840  6FDB               	movwf	219,b	;volatile
  2332                           
  2333                           ;mcc_generated_files/mcc.c: 70:     OSCEN = 0x00;
  2334  001842  0E00               	movlw	0
  2335  001844  6FDD               	movwf	221,b	;volatile
  2336                           
  2337                           ;mcc_generated_files/mcc.c: 72:     OSCFRQ = 0x08;
  2338  001846  0E08               	movlw	8
  2339  001848  6FDF               	movwf	223,b	;volatile
  2340                           
  2341                           ;mcc_generated_files/mcc.c: 74:     OSCTUNE = 0x00;
  2342  00184A  0E00               	movlw	0
  2343  00184C  6FDE               	movwf	222,b	;volatile
  2344  00184E                     
  2345                           ; BSR set to: 57
  2346  00184E  0012               	return		;funcret
  2347  001850                     __end_of_OSCILLATOR_Initialize:
  2348                           	callstack 0
  2349                           
  2350 ;; *************** function _INTERRUPT_Initialize *****************
  2351 ;; Defined at:
  2352 ;;		line 52 in file "mcc_generated_files/interrupt_manager.c"
  2353 ;; Parameters:    Size  Location     Type
  2354 ;;		None
  2355 ;; Auto vars:     Size  Location     Type
  2356 ;;		None
  2357 ;; Return value:  Size  Location     Type
  2358 ;;                  1    wreg      void 
  2359 ;; Registers used:
  2360 ;;		None
  2361 ;; Tracked objects:
  2362 ;;		On entry : 0/0
  2363 ;;		On exit  : 0/0
  2364 ;;		Unchanged: 0/0
  2365 ;; Data sizes:     COMRAM   BANK0   BANK1   BANK2   BANK3   BANK4   BANK5   BANK6   BANK7   BANK8   BANK9  BANK10  BANK1
      +1  BANK12  BANK13  BANK14  BANK15
  2366 ;;      Params:         0       0       0       0       0       0       0       0       0       0       0       0       
      +0       0       0       0       0
  2367 ;;      Locals:         0       0       0       0       0       0       0       0       0       0       0       0       
      +0       0       0       0       0
  2368 ;;      Temps:          0       0       0       0       0       0       0       0       0       0       0       0       
      +0       0       0       0       0
  2369 ;;      Totals:         0       0       0       0       0       0       0       0       0       0       0       0       
      +0       0       0       0       0
  2370 ;;Total ram usage:        0 bytes
  2371 ;; Hardware stack levels used: 1
  2372 ;; Hardware stack levels required when called: 3
  2373 ;; This function calls:
  2374 ;;		Nothing
  2375 ;; This function is called by:
  2376 ;;		_SYSTEM_Initialize
  2377 ;;		_main
  2378 ;; This function uses a non-reentrant model
  2379 ;;
  2380                           
  2381                           	psect	text15
  2382  0018A6                     __ptext15:
  2383                           	callstack 0
  2384  0018A6                     _INTERRUPT_Initialize:
  2385                           	callstack 26
  2386  0018A6                     
  2387                           ;mcc_generated_files/interrupt_manager.c: 55:     INTCON0bits.IPEN = 0;
  2388  0018A6  9AD2               	bcf	210,5,c	;volatile
  2389  0018A8  0012               	return		;funcret
  2390  0018AA                     __end_of_INTERRUPT_Initialize:
  2391                           	callstack 0
  2392                           
  2393 ;; *************** function _FVR_Initialize *****************
  2394 ;; Defined at:
  2395 ;;		line 58 in file "mcc_generated_files/fvr.c"
  2396 ;; Parameters:    Size  Location     Type
  2397 ;;		None
  2398 ;; Auto vars:     Size  Location     Type
  2399 ;;		None
  2400 ;; Return value:  Size  Location     Type
  2401 ;;                  1    wreg      void 
  2402 ;; Registers used:
  2403 ;;		wreg, status,2
  2404 ;; Tracked objects:
  2405 ;;		On entry : 0/0
  2406 ;;		On exit  : 0/0
  2407 ;;		Unchanged: 0/0
  2408 ;; Data sizes:     COMRAM   BANK0   BANK1   BANK2   BANK3   BANK4   BANK5   BANK6   BANK7   BANK8   BANK9  BANK10  BANK1
      +1  BANK12  BANK13  BANK14  BANK15
  2409 ;;      Params:         0       0       0       0       0       0       0       0       0       0       0       0       
      +0       0       0       0       0
  2410 ;;      Locals:         0       0       0       0       0       0       0       0       0       0       0       0       
      +0       0       0       0       0
  2411 ;;      Temps:          0       0       0       0       0       0       0       0       0       0       0       0       
      +0       0       0       0       0
  2412 ;;      Totals:         0       0       0       0       0       0       0       0       0       0       0       0       
      +0       0       0       0       0
  2413 ;;Total ram usage:        0 bytes
  2414 ;; Hardware stack levels used: 1
  2415 ;; Hardware stack levels required when called: 3
  2416 ;; This function calls:
  2417 ;;		Nothing
  2418 ;; This function is called by:
  2419 ;;		_SYSTEM_Initialize
  2420 ;; This function uses a non-reentrant model
  2421 ;;
  2422                           
  2423                           	psect	text16
  2424  001898                     __ptext16:
  2425                           	callstack 0
  2426  001898                     _FVR_Initialize:
  2427                           	callstack 26
  2428  001898                     
  2429                           ;mcc_generated_files/fvr.c: 61:     FVRCON = 0x82;
  2430  001898  0E82               	movlw	130
  2431  00189A  013E               	movlb	62	; () banked
  2432  00189C  6FC1               	movwf	193,b	;volatile
  2433  00189E                     
  2434                           ; BSR set to: 62
  2435  00189E  0012               	return		;funcret
  2436  0018A0                     __end_of_FVR_Initialize:
  2437                           	callstack 0
  2438                           
  2439 ;; *************** function _ADCC_Initialize *****************
  2440 ;; Defined at:
  2441 ;;		line 63 in file "mcc_generated_files/adcc.c"
  2442 ;; Parameters:    Size  Location     Type
  2443 ;;		None
  2444 ;; Auto vars:     Size  Location     Type
  2445 ;;		None
  2446 ;; Return value:  Size  Location     Type
  2447 ;;                  1    wreg      void 
  2448 ;; Registers used:
  2449 ;;		wreg, status,2, status,0, cstack
  2450 ;; Tracked objects:
  2451 ;;		On entry : 0/0
  2452 ;;		On exit  : 0/0
  2453 ;;		Unchanged: 0/0
  2454 ;; Data sizes:     COMRAM   BANK0   BANK1   BANK2   BANK3   BANK4   BANK5   BANK6   BANK7   BANK8   BANK9  BANK10  BANK1
      +1  BANK12  BANK13  BANK14  BANK15
  2455 ;;      Params:         0       0       0       0       0       0       0       0       0       0       0       0       
      +0       0       0       0       0
  2456 ;;      Locals:         0       0       0       0       0       0       0       0       0       0       0       0       
      +0       0       0       0       0
  2457 ;;      Temps:          0       0       0       0       0       0       0       0       0       0       0       0       
      +0       0       0       0       0
  2458 ;;      Totals:         0       0       0       0       0       0       0       0       0       0       0       0       
      +0       0       0       0       0
  2459 ;;Total ram usage:        0 bytes
  2460 ;; Hardware stack levels used: 1
  2461 ;; Hardware stack levels required when called: 4
  2462 ;; This function calls:
  2463 ;;		_ADCC_SetADIInterruptHandler
  2464 ;; This function is called by:
  2465 ;;		_SYSTEM_Initialize
  2466 ;; This function uses a non-reentrant model
  2467 ;;
  2468                           
  2469                           	psect	text17
  2470  00156C                     __ptext17:
  2471                           	callstack 0
  2472  00156C                     _ADCC_Initialize:
  2473                           	callstack 25
  2474  00156C                     
  2475                           ;mcc_generated_files/adcc.c: 67:     ADLTHL = 0x00;
  2476  00156C  0E00               	movlw	0
  2477  00156E  013E               	movlb	62	; () banked
  2478  001570  6FDE               	movwf	222,b	;volatile
  2479                           
  2480                           ;mcc_generated_files/adcc.c: 69:     ADLTHH = 0x00;
  2481  001572  0E00               	movlw	0
  2482  001574  6FDF               	movwf	223,b	;volatile
  2483                           
  2484                           ;mcc_generated_files/adcc.c: 71:     ADUTHL = 0x00;
  2485  001576  0E00               	movlw	0
  2486  001578  6FE0               	movwf	224,b	;volatile
  2487                           
  2488                           ;mcc_generated_files/adcc.c: 73:     ADUTHH = 0x00;
  2489  00157A  0E00               	movlw	0
  2490  00157C  6FE1               	movwf	225,b	;volatile
  2491                           
  2492                           ;mcc_generated_files/adcc.c: 75:     ADSTPTL = 0x00;
  2493  00157E  0E00               	movlw	0
  2494  001580  6FE4               	movwf	228,b	;volatile
  2495                           
  2496                           ;mcc_generated_files/adcc.c: 77:     ADSTPTH = 0x00;
  2497  001582  0E00               	movlw	0
  2498  001584  6FE5               	movwf	229,b	;volatile
  2499                           
  2500                           ;mcc_generated_files/adcc.c: 79:     ADACCU = 0x00;
  2501  001586  0E00               	movlw	0
  2502  001588  6FEA               	movwf	234,b	;volatile
  2503                           
  2504                           ;mcc_generated_files/adcc.c: 81:     ADRPT = 0x00;
  2505  00158A  0E00               	movlw	0
  2506  00158C  6FEC               	movwf	236,b	;volatile
  2507                           
  2508                           ;mcc_generated_files/adcc.c: 83:     ADPCH = 0x00;
  2509  00158E  0E00               	movlw	0
  2510  001590  6FF1               	movwf	241,b	;volatile
  2511                           
  2512                           ;mcc_generated_files/adcc.c: 85:     ADACQL = 0x00;
  2513  001592  0E00               	movlw	0
  2514  001594  6FF3               	movwf	243,b	;volatile
  2515                           
  2516                           ;mcc_generated_files/adcc.c: 87:     ADACQH = 0x00;
  2517  001596  0E00               	movlw	0
  2518  001598  6FF4               	movwf	244,b	;volatile
  2519                           
  2520                           ;mcc_generated_files/adcc.c: 89:     ADCAP = 0x00;
  2521  00159A  0E00               	movlw	0
  2522  00159C  6FF5               	movwf	245,b	;volatile
  2523                           
  2524                           ;mcc_generated_files/adcc.c: 91:     ADPREL = 0x00;
  2525  00159E  0E00               	movlw	0
  2526  0015A0  6FF6               	movwf	246,b	;volatile
  2527                           
  2528                           ;mcc_generated_files/adcc.c: 93:     ADPREH = 0x00;
  2529  0015A2  0E00               	movlw	0
  2530  0015A4  6FF7               	movwf	247,b	;volatile
  2531                           
  2532                           ;mcc_generated_files/adcc.c: 95:     ADCON1 = 0x00;
  2533  0015A6  0E00               	movlw	0
  2534  0015A8  6FF9               	movwf	249,b	;volatile
  2535                           
  2536                           ;mcc_generated_files/adcc.c: 97:     ADCON2 = 0x00;
  2537  0015AA  0E00               	movlw	0
  2538  0015AC  6FFA               	movwf	250,b	;volatile
  2539                           
  2540                           ;mcc_generated_files/adcc.c: 99:     ADCON3 = 0x00;
  2541  0015AE  0E00               	movlw	0
  2542  0015B0  6FFB               	movwf	251,b	;volatile
  2543                           
  2544                           ;mcc_generated_files/adcc.c: 101:     ADSTAT = 0x00;
  2545  0015B2  0E00               	movlw	0
  2546  0015B4  6FFC               	movwf	252,b	;volatile
  2547                           
  2548                           ;mcc_generated_files/adcc.c: 103:     ADREF = 0x03;
  2549  0015B6  0E03               	movlw	3
  2550  0015B8  6FFD               	movwf	253,b	;volatile
  2551                           
  2552                           ;mcc_generated_files/adcc.c: 105:     ADACT = 0x04;
  2553  0015BA  0E04               	movlw	4
  2554  0015BC  6FFE               	movwf	254,b	;volatile
  2555                           
  2556                           ;mcc_generated_files/adcc.c: 107:     ADCLK = 0x1F;
  2557  0015BE  0E1F               	movlw	31
  2558  0015C0  6FFF               	movwf	255,b	;volatile
  2559                           
  2560                           ;mcc_generated_files/adcc.c: 109:     ADCON0 = 0x84;
  2561  0015C2  0E84               	movlw	132
  2562  0015C4  6FF8               	movwf	248,b	;volatile
  2563  0015C6                     
  2564                           ; BSR set to: 62
  2565                           ;mcc_generated_files/adcc.c: 112:     PIR1bits.ADIF = 0;
  2566  0015C6  0139               	movlb	57	; () banked
  2567  0015C8  95A1               	bcf	161,2,b	;volatile
  2568  0015CA                     
  2569                           ; BSR set to: 57
  2570                           ;mcc_generated_files/adcc.c: 114:     PIE1bits.ADIE = 1;
  2571  0015CA  8591               	bsf	145,2,b	;volatile
  2572  0015CC                     
  2573                           ; BSR set to: 57
  2574                           ;mcc_generated_files/adcc.c: 116:     ADCC_SetADIInterruptHandler(ADCC_DefaultInterruptH
      +                          andler);
  2575  0015CC  0EAC               	movlw	low _ADCC_DefaultInterruptHandler
  2576  0015CE  6E03               	movwf	ADCC_SetADIInterruptHandler@InterruptHandler^0,c
  2577  0015D0  0E18               	movlw	high _ADCC_DefaultInterruptHandler
  2578  0015D2  6E04               	movwf	(ADCC_SetADIInterruptHandler@InterruptHandler+1)^0,c
  2579  0015D4  EC42  F00C         	call	_ADCC_SetADIInterruptHandler	;wreg free
  2580  0015D8  0012               	return		;funcret
  2581  0015DA                     __end_of_ADCC_Initialize:
  2582                           	callstack 0
  2583                           
  2584 ;; *************** function _ADCC_SetADIInterruptHandler *****************
  2585 ;; Defined at:
  2586 ;;		line 315 in file "mcc_generated_files/adcc.c"
  2587 ;; Parameters:    Size  Location     Type
  2588 ;;  InterruptHan    2    2[COMRAM] PTR FTN()void 
  2589 ;;		 -> InterruocionADC(1), ADCC_DefaultInterruptHandler(1), 
  2590 ;; Auto vars:     Size  Location     Type
  2591 ;;		None
  2592 ;; Return value:  Size  Location     Type
  2593 ;;                  1    wreg      void 
  2594 ;; Registers used:
  2595 ;;		wreg, status,2, status,0
  2596 ;; Tracked objects:
  2597 ;;		On entry : 0/0
  2598 ;;		On exit  : 0/0
  2599 ;;		Unchanged: 0/0
  2600 ;; Data sizes:     COMRAM   BANK0   BANK1   BANK2   BANK3   BANK4   BANK5   BANK6   BANK7   BANK8   BANK9  BANK10  BANK1
      +1  BANK12  BANK13  BANK14  BANK15
  2601 ;;      Params:         2       0       0       0       0       0       0       0       0       0       0       0       
      +0       0       0       0       0
  2602 ;;      Locals:         0       0       0       0       0       0       0       0       0       0       0       0       
      +0       0       0       0       0
  2603 ;;      Temps:          0       0       0       0       0       0       0       0       0       0       0       0       
      +0       0       0       0       0
  2604 ;;      Totals:         2       0       0       0       0       0       0       0       0       0       0       0       
      +0       0       0       0       0
  2605 ;;Total ram usage:        2 bytes
  2606 ;; Hardware stack levels used: 1
  2607 ;; Hardware stack levels required when called: 3
  2608 ;; This function calls:
  2609 ;;		Nothing
  2610 ;; This function is called by:
  2611 ;;		_ADCC_Initialize
  2612 ;;		_main
  2613 ;; This function uses a non-reentrant model
  2614 ;;
  2615                           
  2616                           	psect	text18
  2617  001884                     __ptext18:
  2618                           	callstack 0
  2619  001884                     _ADCC_SetADIInterruptHandler:
  2620                           	callstack 25
  2621  001884                     
  2622                           ;mcc_generated_files/adcc.c: 316:     ADCC_ADI_InterruptHandler = InterruptHandler;
  2623  001884  C003  F044         	movff	ADCC_SetADIInterruptHandler@InterruptHandler,_ADCC_ADI_InterruptHandler
  2624  001888  C004  F045         	movff	ADCC_SetADIInterruptHandler@InterruptHandler+1,_ADCC_ADI_InterruptHandler+1
  2625  00188C  0012               	return		;funcret
  2626  00188E                     __end_of_ADCC_SetADIInterruptHandler:
  2627                           	callstack 0
  2628                           
  2629 ;; *************** function _SPI1_WriteByte *****************
  2630 ;; Defined at:
  2631 ;;		line 138 in file "mcc_generated_files/spi1.c"
  2632 ;; Parameters:    Size  Location     Type
  2633 ;;  byte            1    wreg     unsigned char 
  2634 ;; Auto vars:     Size  Location     Type
  2635 ;;  byte            1    2[COMRAM] unsigned char 
  2636 ;; Return value:  Size  Location     Type
  2637 ;;                  1    wreg      void 
  2638 ;; Registers used:
  2639 ;;		wreg
  2640 ;; Tracked objects:
  2641 ;;		On entry : 0/0
  2642 ;;		On exit  : 0/0
  2643 ;;		Unchanged: 0/0
  2644 ;; Data sizes:     COMRAM   BANK0   BANK1   BANK2   BANK3   BANK4   BANK5   BANK6   BANK7   BANK8   BANK9  BANK10  BANK1
      +1  BANK12  BANK13  BANK14  BANK15
  2645 ;;      Params:         0       0       0       0       0       0       0       0       0       0       0       0       
      +0       0       0       0       0
  2646 ;;      Locals:         1       0       0       0       0       0       0       0       0       0       0       0       
      +0       0       0       0       0
  2647 ;;      Temps:          0       0       0       0       0       0       0       0       0       0       0       0       
      +0       0       0       0       0
  2648 ;;      Totals:         1       0       0       0       0       0       0       0       0       0       0       0       
      +0       0       0       0       0
  2649 ;;Total ram usage:        1 bytes
  2650 ;; Hardware stack levels used: 1
  2651 ;; Hardware stack levels required when called: 3
  2652 ;; This function calls:
  2653 ;;		Nothing
  2654 ;; This function is called by:
  2655 ;;		_main
  2656 ;; This function uses a non-reentrant model
  2657 ;;
  2658                           
  2659                           	psect	text19
  2660  00188E                     __ptext19:
  2661                           	callstack 0
  2662  00188E                     _SPI1_WriteByte:
  2663                           	callstack 27
  2664                           
  2665                           ;incstack = 0
  2666                           ;SPI1_WriteByte@byte stored from wreg
  2667  00188E  6E03               	movwf	SPI1_WriteByte@byte^0,c
  2668  001890                     
  2669                           ;mcc_generated_files/spi1.c: 138: void SPI1_WriteByte(uint8_t byte);mcc_generated_files/
      +                          spi1.c: 139: {;mcc_generated_files/spi1.c: 140:     SPI1TXB = byte;
  2670  001890  0060  F00F  FD11   	movff	SPI1_WriteByte@byte,15633	;volatile
  2671  001896  0012               	return		;funcret
  2672  001898                     __end_of_SPI1_WriteByte:
  2673                           	callstack 0
  2674                           
  2675 ;; *************** function _ADCC_GetConversionResult *****************
  2676 ;; Defined at:
  2677 ;;		line 138 in file "mcc_generated_files/adcc.c"
  2678 ;; Parameters:    Size  Location     Type
  2679 ;;		None
  2680 ;; Auto vars:     Size  Location     Type
  2681 ;;		None
  2682 ;; Return value:  Size  Location     Type
  2683 ;;                  2    2[COMRAM] unsigned short 
  2684 ;; Registers used:
  2685 ;;		wreg, status,2, status,0
  2686 ;; Tracked objects:
  2687 ;;		On entry : 0/0
  2688 ;;		On exit  : 0/0
  2689 ;;		Unchanged: 0/0
  2690 ;; Data sizes:     COMRAM   BANK0   BANK1   BANK2   BANK3   BANK4   BANK5   BANK6   BANK7   BANK8   BANK9  BANK10  BANK1
      +1  BANK12  BANK13  BANK14  BANK15
  2691 ;;      Params:         2       0       0       0       0       0       0       0       0       0       0       0       
      +0       0       0       0       0
  2692 ;;      Locals:         0       0       0       0       0       0       0       0       0       0       0       0       
      +0       0       0       0       0
  2693 ;;      Temps:          2       0       0       0       0       0       0       0       0       0       0       0       
      +0       0       0       0       0
  2694 ;;      Totals:         4       0       0       0       0       0       0       0       0       0       0       0       
      +0       0       0       0       0
  2695 ;;Total ram usage:        4 bytes
  2696 ;; Hardware stack levels used: 1
  2697 ;; Hardware stack levels required when called: 3
  2698 ;; This function calls:
  2699 ;;		Nothing
  2700 ;; This function is called by:
  2701 ;;		_main
  2702 ;; This function uses a non-reentrant model
  2703 ;;
  2704                           
  2705                           	psect	text20
  2706  001850                     __ptext20:
  2707                           	callstack 0
  2708  001850                     _ADCC_GetConversionResult:
  2709                           	callstack 27
  2710  001850                     
  2711                           ;mcc_generated_files/adcc.c: 141:     return ((adc_result_t)((ADRESH << 8) + ADRESL));
  2712  001850  013E               	movlb	62	; () banked
  2713  001852  51F0               	movf	240,w,b	;volatile
  2714  001854  6E06               	movwf	(??_ADCC_GetConversionResult+1)^0,c
  2715  001856  6A05               	clrf	??_ADCC_GetConversionResult^0,c
  2716  001858  51EF               	movf	239,w,b	;volatile
  2717  00185A  2405               	addwf	??_ADCC_GetConversionResult^0,w,c
  2718  00185C  6E03               	movwf	?_ADCC_GetConversionResult^0,c
  2719  00185E  0E00               	movlw	0
  2720  001860  2006               	addwfc	(??_ADCC_GetConversionResult+1)^0,w,c
  2721  001862  6E04               	movwf	(?_ADCC_GetConversionResult+1)^0,c
  2722  001864                     
  2723                           ; BSR set to: 62
  2724  001864  0012               	return		;funcret
  2725  001866                     __end_of_ADCC_GetConversionResult:
  2726                           	callstack 0
  2727                           
  2728 ;; *************** function _INTERRUPT_InterruptManager *****************
  2729 ;; Defined at:
  2730 ;;		line 58 in file "mcc_generated_files/interrupt_manager.c"
  2731 ;; Parameters:    Size  Location     Type
  2732 ;;		None
  2733 ;; Auto vars:     Size  Location     Type
  2734 ;;		None
  2735 ;; Return value:  Size  Location     Type
  2736 ;;                  1    wreg      void 
  2737 ;; Registers used:
  2738 ;;		wreg, status,2, status,0, pcl, pclath, pclatu, tosl, cstack
  2739 ;; Tracked objects:
  2740 ;;		On entry : 0/0
  2741 ;;		On exit  : 0/0
  2742 ;;		Unchanged: 0/0
  2743 ;; Data sizes:     COMRAM   BANK0   BANK1   BANK2   BANK3   BANK4   BANK5   BANK6   BANK7   BANK8   BANK9  BANK10  BANK1
      +1  BANK12  BANK13  BANK14  BANK15
  2744 ;;      Params:         0       0       0       0       0       0       0       0       0       0       0       0       
      +0       0       0       0       0
  2745 ;;      Locals:         0       0       0       0       0       0       0       0       0       0       0       0       
      +0       0       0       0       0
  2746 ;;      Temps:          2       0       0       0       0       0       0       0       0       0       0       0       
      +0       0       0       0       0
  2747 ;;      Totals:         2       0       0       0       0       0       0       0       0       0       0       0       
      +0       0       0       0       0
  2748 ;;Total ram usage:        2 bytes
  2749 ;; Hardware stack levels used: 1
  2750 ;; Hardware stack levels required when called: 2
  2751 ;; This function calls:
  2752 ;;		_ADCC_ISR
  2753 ;; This function is called by:
  2754 ;;		Interrupt level 2
  2755 ;; This function uses a non-reentrant model
  2756 ;;
  2757                           
  2758                           	psect	text21
  2759  001730                     __ptext21:
  2760                           	callstack 0
  2761  001730                     _INTERRUPT_InterruptManager:
  2762                           	callstack 25
  2763                           
  2764                           ; BSR set to: 62
  2765                           ;incstack = 0
  2766  001730  006F FFE8  F001    	movff	pclath,??_INTERRUPT_InterruptManager
  2767  001736  006F FFEC  F002    	movff	pclatu,??_INTERRUPT_InterruptManager+1
  2768  00173C                     
  2769                           ;mcc_generated_files/interrupt_manager.c: 61:     if(PIE1bits.ADIE == 1 && PIR1bits.ADIF
      +                           == 1)
  2770  00173C  0139               	movlb	57	; () banked
  2771  00173E  A591               	btfss	145,2,b	;volatile
  2772  001740  EFA4  F00B         	goto	i2u28_41
  2773  001744  EFA6  F00B         	goto	i2u28_40
  2774  001748                     i2u28_41:
  2775  001748  EFAF  F00B         	goto	i2l425
  2776  00174C                     i2u28_40:
  2777  00174C                     
  2778                           ; BSR set to: 57
  2779  00174C  A5A1               	btfss	161,2,b	;volatile
  2780  00174E  EFAB  F00B         	goto	i2u29_41
  2781  001752  EFAD  F00B         	goto	i2u29_40
  2782  001756                     i2u29_41:
  2783  001756  EFAF  F00B         	goto	i2l425
  2784  00175A                     i2u29_40:
  2785  00175A                     
  2786                           ; BSR set to: 57
  2787                           ;mcc_generated_files/interrupt_manager.c: 62:     {;mcc_generated_files/interrupt_manage
      +                          r.c: 63:         ADCC_ISR();
  2788  00175A  ECB6  F00B         	call	_ADCC_ISR	;wreg free
  2789  00175E                     i2l425:
  2790  00175E  0060  F00B  FFFB   	movff	??_INTERRUPT_InterruptManager+1,pclatu
  2791  001764  0060  F007  FFFA   	movff	??_INTERRUPT_InterruptManager,pclath
  2792  00176A  0011               	retfie		f
  2793  00176C                     __end_of_INTERRUPT_InterruptManager:
  2794                           	callstack 0
  2795                           
  2796 ;; *************** function _ADCC_ISR *****************
  2797 ;; Defined at:
  2798 ;;		line 306 in file "mcc_generated_files/adcc.c"
  2799 ;; Parameters:    Size  Location     Type
  2800 ;;		None
  2801 ;; Auto vars:     Size  Location     Type
  2802 ;;		None
  2803 ;; Return value:  Size  Location     Type
  2804 ;;                  1    wreg      void 
  2805 ;; Registers used:
  2806 ;;		wreg, status,2, status,0, pcl, pclath, pclatu, tosl, cstack
  2807 ;; Tracked objects:
  2808 ;;		On entry : 0/0
  2809 ;;		On exit  : 0/0
  2810 ;;		Unchanged: 0/0
  2811 ;; Data sizes:     COMRAM   BANK0   BANK1   BANK2   BANK3   BANK4   BANK5   BANK6   BANK7   BANK8   BANK9  BANK10  BANK1
      +1  BANK12  BANK13  BANK14  BANK15
  2812 ;;      Params:         0       0       0       0       0       0       0       0       0       0       0       0       
      +0       0       0       0       0
  2813 ;;      Locals:         0       0       0       0       0       0       0       0       0       0       0       0       
      +0       0       0       0       0
  2814 ;;      Temps:          0       0       0       0       0       0       0       0       0       0       0       0       
      +0       0       0       0       0
  2815 ;;      Totals:         0       0       0       0       0       0       0       0       0       0       0       0       
      +0       0       0       0       0
  2816 ;;Total ram usage:        0 bytes
  2817 ;; Hardware stack levels used: 1
  2818 ;; Hardware stack levels required when called: 1
  2819 ;; This function calls:
  2820 ;;		Absolute function
  2821 ;;		_ADCC_DefaultInterruptHandler
  2822 ;;		_InterruocionADC
  2823 ;; This function is called by:
  2824 ;;		_INTERRUPT_InterruptManager
  2825 ;; This function uses a non-reentrant model
  2826 ;;
  2827                           
  2828                           	psect	text22
  2829  00176C                     __ptext22:
  2830                           	callstack 0
  2831  00176C                     _ADCC_ISR:
  2832                           	callstack 25
  2833  00176C                     
  2834                           ;mcc_generated_files/adcc.c: 309:     PIR1bits.ADIF = 0;
  2835  00176C  0139               	movlb	57	; () banked
  2836  00176E  95A1               	bcf	161,2,b	;volatile
  2837  001770                     
  2838                           ; BSR set to: 57
  2839                           ;mcc_generated_files/adcc.c: 311:     if (ADCC_ADI_InterruptHandler)
  2840  001770  5044               	movf	_ADCC_ADI_InterruptHandler^0,w,c
  2841  001772  1045               	iorwf	(_ADCC_ADI_InterruptHandler+1)^0,w,c
  2842  001774  B4D8               	btfsc	status,2,c
  2843  001776  EFBF  F00B         	goto	i2u5_41
  2844  00177A  EFC1  F00B         	goto	i2u5_40
  2845  00177E                     i2u5_41:
  2846  00177E  EFCD  F00B         	goto	i2l599
  2847  001782                     i2u5_40:
  2848  001782                     
  2849                           ; BSR set to: 57
  2850                           ;mcc_generated_files/adcc.c: 312:             ADCC_ADI_InterruptHandler();
  2851  001782  D802               	call	i2u6_48
  2852  001784  EFCD  F00B         	goto	i2u6_49
  2853  001788                     i2u6_48:
  2854  001788  0005               	push	
  2855  00178A  6EFA               	movwf	pclath,c
  2856  00178C  5044               	movf	_ADCC_ADI_InterruptHandler^0,w,c
  2857  00178E  6EFD               	movwf	tosl,c
  2858  001790  5045               	movf	(_ADCC_ADI_InterruptHandler+1)^0,w,c
  2859  001792  6EFE               	movwf	tosh,c
  2860  001794  6AFF               	clrf	tosu,c
  2861  001796  50FA               	movf	pclath,w,c
  2862  001798  0012               	return		;indir
  2863  00179A                     i2u6_49:
  2864  00179A                     i2l599:
  2865  00179A  0012               	return		;funcret
  2866  00179C                     __end_of_ADCC_ISR:
  2867                           	callstack 0
  2868                           
  2869 ;; *************** function _ADCC_DefaultInterruptHandler *****************
  2870 ;; Defined at:
  2871 ;;		line 319 in file "mcc_generated_files/adcc.c"
  2872 ;; Parameters:    Size  Location     Type
  2873 ;;		None
  2874 ;; Auto vars:     Size  Location     Type
  2875 ;;		None
  2876 ;; Return value:  Size  Location     Type
  2877 ;;                  1    wreg      void 
  2878 ;; Registers used:
  2879 ;;		None
  2880 ;; Tracked objects:
  2881 ;;		On entry : 0/0
  2882 ;;		On exit  : 0/0
  2883 ;;		Unchanged: 0/0
  2884 ;; Data sizes:     COMRAM   BANK0   BANK1   BANK2   BANK3   BANK4   BANK5   BANK6   BANK7   BANK8   BANK9  BANK10  BANK1
      +1  BANK12  BANK13  BANK14  BANK15
  2885 ;;      Params:         0       0       0       0       0       0       0       0       0       0       0       0       
      +0       0       0       0       0
  2886 ;;      Locals:         0       0       0       0       0       0       0       0       0       0       0       0       
      +0       0       0       0       0
  2887 ;;      Temps:          0       0       0       0       0       0       0       0       0       0       0       0       
      +0       0       0       0       0
  2888 ;;      Totals:         0       0       0       0       0       0       0       0       0       0       0       0       
      +0       0       0       0       0
  2889 ;;Total ram usage:        0 bytes
  2890 ;; Hardware stack levels used: 1
  2891 ;; This function calls:
  2892 ;;		Nothing
  2893 ;; This function is called by:
  2894 ;;		_ADCC_Initialize
  2895 ;;		_ADCC_ISR
  2896 ;; This function uses a non-reentrant model
  2897 ;;
  2898                           
  2899                           	psect	text23
  2900  0018AC                     __ptext23:
  2901                           	callstack 0
  2902  0018AC                     _ADCC_DefaultInterruptHandler:
  2903                           	callstack 25
  2904  0018AC  0012               	return		;funcret
  2905  0018AE                     __end_of_ADCC_DefaultInterruptHandler:
  2906                           	callstack 0
  2907                           
  2908 ;; *************** function _InterruocionADC *****************
  2909 ;; Defined at:
  2910 ;;		line 63 in file "main.c"
  2911 ;; Parameters:    Size  Location     Type
  2912 ;;		None
  2913 ;; Auto vars:     Size  Location     Type
  2914 ;;		None
  2915 ;; Return value:  Size  Location     Type
  2916 ;;                  1    wreg      void 
  2917 ;; Registers used:
  2918 ;;		wreg, status,2
  2919 ;; Tracked objects:
  2920 ;;		On entry : 0/0
  2921 ;;		On exit  : 0/0
  2922 ;;		Unchanged: 0/0
  2923 ;; Data sizes:     COMRAM   BANK0   BANK1   BANK2   BANK3   BANK4   BANK5   BANK6   BANK7   BANK8   BANK9  BANK10  BANK1
      +1  BANK12  BANK13  BANK14  BANK15
  2924 ;;      Params:         0       0       0       0       0       0       0       0       0       0       0       0       
      +0       0       0       0       0
  2925 ;;      Locals:         0       0       0       0       0       0       0       0       0       0       0       0       
      +0       0       0       0       0
  2926 ;;      Temps:          0       0       0       0       0       0       0       0       0       0       0       0       
      +0       0       0       0       0
  2927 ;;      Totals:         0       0       0       0       0       0       0       0       0       0       0       0       
      +0       0       0       0       0
  2928 ;;Total ram usage:        0 bytes
  2929 ;; Hardware stack levels used: 1
  2930 ;; This function calls:
  2931 ;;		Nothing
  2932 ;; This function is called by:
  2933 ;;		_main
  2934 ;;		_ADCC_ISR
  2935 ;; This function uses a non-reentrant model
  2936 ;;
  2937                           
  2938                           	psect	text24
  2939  0018A0                     __ptext24:
  2940                           	callstack 0
  2941  0018A0                     _InterruocionADC:
  2942                           	callstack 25
  2943  0018A0                     
  2944                           ;main.c: 64:     ADCInterrupt = 1;
  2945  0018A0  0E01               	movlw	1
  2946  0018A2  6E40               	movwf	_ADCInterrupt^0,c	;volatile
  2947  0018A4  0012               	return		;funcret
  2948  0018A6                     __end_of_InterruocionADC:
  2949                           	callstack 0
  2950                           
  2951                           ;
  2952                           ; Interrupt Vector Table @ 0x8
  2953                           ;
  2954                           
  2955                           	psect	ivt0x8
  2956  000008                     __pivt0x8:
  2957                           	callstack 0
  2958  000008                     ivt0x8_base:
  2959                           	callstack 0
  2960                           
  2961                           ; high-priority vector
  2962  000008  EF98  F00B         	goto	_INTERRUPT_InterruptManager
  2963  000018                     	org	16
  2964                           
  2965                           ; low-priority vector
  2966  000018  00FF               	reset	
  2967                           
  2968                           	psect	text25
  2969  000000                     __ptext25:
  2970                           	callstack 0
  2971  000000                     
  2972                           	psect	rparam
  2973  0000                     
  2974                           	psect	idloc
  2975                           
  2976                           ;Config register IDLOC0 @ 0x200000
  2977                           ;	unspecified, using default values
  2978  200000                     	org	2097152
  2979  200000  0FFF               	dw	4095
  2980                           
  2981                           ;Config register IDLOC1 @ 0x200002
  2982                           ;	unspecified, using default values
  2983  200002                     	org	2097154
  2984  200002  0FFF               	dw	4095
  2985                           
  2986                           ;Config register IDLOC2 @ 0x200004
  2987                           ;	unspecified, using default values
  2988  200004                     	org	2097156
  2989  200004  0FFF               	dw	4095
  2990                           
  2991                           ;Config register IDLOC3 @ 0x200006
  2992                           ;	unspecified, using default values
  2993  200006                     	org	2097158
  2994  200006  0FFF               	dw	4095
  2995                           
  2996                           ;Config register IDLOC4 @ 0x200008
  2997                           ;	unspecified, using default values
  2998  200008                     	org	2097160
  2999  200008  0FFF               	dw	4095
  3000                           
  3001                           ;Config register IDLOC5 @ 0x20000A
  3002                           ;	unspecified, using default values
  3003  20000A                     	org	2097162
  3004  20000A  0FFF               	dw	4095
  3005                           
  3006                           ;Config register IDLOC6 @ 0x20000C
  3007                           ;	unspecified, using default values
  3008  20000C                     	org	2097164
  3009  20000C  0FFF               	dw	4095
  3010                           
  3011                           ;Config register IDLOC7 @ 0x20000E
  3012                           ;	unspecified, using default values
  3013  20000E                     	org	2097166
  3014  20000E  0FFF               	dw	4095
  3015                           
  3016                           	psect	config
  3017                           
  3018                           ;Config register CONFIG1L @ 0x300000
  3019                           ;	External Oscillator Selection
  3020                           ;	FEXTOSC = OFF, Oscillator not enabled
  3021                           ;	Reset Oscillator Selection
  3022                           ;	RSTOSC = HFINTOSC_64MHZ, HFINTOSC with HFFRQ = 64 MHz and CDIV = 1:1
  3023  300000                     	org	3145728
  3024  300000  8C                 	db	140
  3025                           
  3026                           ;Config register CONFIG1H @ 0x300001
  3027                           ;	Clock out Enable bit
  3028                           ;	CLKOUTEN = OFF, CLKOUT function is disabled
  3029                           ;	PRLOCKED One-Way Set Enable bit
  3030                           ;	PR1WAY = ON, PRLOCK bit can be cleared and set only once
  3031                           ;	Clock Switch Enable bit
  3032                           ;	CSWEN = ON, Writing to NOSC and NDIV is allowed
  3033                           ;	Fail-Safe Clock Monitor Enable bit
  3034                           ;	FCMEN = ON, Fail-Safe Clock Monitor enabled
  3035  300001                     	org	3145729
  3036  300001  FF                 	db	255
  3037                           
  3038                           ;Config register CONFIG2L @ 0x300002
  3039                           ;	MCLR Enable bit
  3040                           ;	MCLRE = EXTMCLR, If LVP = 0, MCLR pin is MCLR; If LVP = 1, RE3 pin function is MCLR
  3041                           ;	Power-up timer selection bits
  3042                           ;	PWRTS = PWRT_OFF, PWRT is disabled
  3043                           ;	Multi-vector enable bit
  3044                           ;	MVECEN = OFF, Interrupt contoller does not use vector table to prioritze interrupts
  3045                           ;	IVTLOCK bit One-way set enable bit
  3046                           ;	IVT1WAY = ON, IVTLOCK bit can be cleared and set only once
  3047                           ;	Low Power BOR Enable bit
  3048                           ;	LPBOREN = OFF, ULPBOR disabled
  3049                           ;	Brown-out Reset Enable bits
  3050                           ;	BOREN = SBORDIS, Brown-out Reset enabled , SBOREN bit is ignored
  3051  300002                     	org	3145730
  3052  300002  F7                 	db	247
  3053                           
  3054                           ;Config register CONFIG2H @ 0x300003
  3055                           ;	Brown-out Reset Voltage Selection bits
  3056                           ;	BORV = VBOR_2P45, Brown-out Reset Voltage (VBOR) set to 2.45V
  3057                           ;	ZCD Disable bit
  3058                           ;	ZCD = OFF, ZCD disabled. ZCD can be enabled by setting the ZCDSEN bit of ZCDCON
  3059                           ;	PPSLOCK bit One-Way Set Enable bit
  3060                           ;	PPS1WAY = ON, PPSLOCK bit can be cleared and set only once; PPS registers remain locke
      +                          d after one clear/set cycle
  3061                           ;	Stack Full/Underflow Reset Enable bit
  3062                           ;	STVREN = ON, Stack full/underflow will cause Reset
  3063                           ;	Debugger Enable bit
  3064                           ;	DEBUG = OFF, Background debugger disabled
  3065                           ;	Extended Instruction Set Enable bit
  3066                           ;	XINST = OFF, Extended Instruction Set and Indexed Addressing Mode disabled
  3067  300003                     	org	3145731
  3068  300003  FF                 	db	255
  3069                           
  3070                           ;Config register CONFIG3L @ 0x300004
  3071                           ;	WDT Period selection bits
  3072                           ;	WDTCPS = WDTCPS_31, Divider ratio 1:65536; software control of WDTPS
  3073                           ;	WDT operating mode
  3074                           ;	WDTE = OFF, WDT Disabled; SWDTEN is ignored
  3075  300004                     	org	3145732
  3076  300004  9F                 	db	159
  3077                           
  3078                           ;Config register CONFIG3H @ 0x300005
  3079                           ;	WDT Window Select bits
  3080                           ;	WDTCWS = WDTCWS_7, window always open (100%); software control; keyed access not requi
      +                          red
  3081                           ;	WDT input clock selector
  3082                           ;	WDTCCS = SC, Software Control
  3083  300005                     	org	3145733
  3084  300005  FF                 	db	255
  3085                           
  3086                           ;Config register CONFIG4L @ 0x300006
  3087                           ;	Boot Block Size selection bits
  3088                           ;	BBSIZE = BBSIZE_512, Boot Block size is 512 words
  3089                           ;	Boot Block enable bit
  3090                           ;	BBEN = OFF, Boot block disabled
  3091                           ;	Storage Area Flash enable bit
  3092                           ;	SAFEN = OFF, SAF disabled
  3093                           ;	Application Block write protection bit
  3094                           ;	WRTAPP = OFF, Application Block not write protected
  3095  300006                     	org	3145734
  3096  300006  FF                 	db	255
  3097                           
  3098                           ;Config register CONFIG4H @ 0x300007
  3099                           ;	Boot Block Write Protection bit
  3100                           ;	WRTB = OFF, Boot Block not write-protected
  3101                           ;	Configuration Register Write Protection bit
  3102                           ;	WRTC = OFF, Configuration registers not write-protected
  3103                           ;	Data EEPROM Write Protection bit
  3104                           ;	WRTD = OFF, Data EEPROM not write-protected
  3105                           ;	SAF Write protection bit
  3106                           ;	WRTSAF = OFF, SAF not Write Protected
  3107                           ;	Low Voltage Programming Enable bit
  3108                           ;	LVP = ON, Low voltage programming enabled. MCLR/VPP pin function is MCLR. MCLRE config
      +                          uration bit is ignored
  3109  300007                     	org	3145735
  3110  300007  FF                 	db	255
  3111                           
  3112                           ;Config register CONFIG5L @ 0x300008
  3113                           ;	PFM and Data EEPROM Code Protection bit
  3114                           ;	CP = OFF, PFM and Data EEPROM code protection disabled
  3115  300008                     	org	3145736
  3116  300008  FF                 	db	255
  3117                           
  3118                           ;Config register CONFIG5H @ 0x300009
  3119                           ;	unspecified, using default values
  3120  300009                     	org	3145737
  3121  300009  FF                 	db	255
  3122                           tosu	equ	0x3FFF
  3123                           tosh	equ	0x3FFE
  3124                           tosl	equ	0x3FFD
  3125                           stkptr	equ	0x3FFC
  3126                           pclatu	equ	0x3FFB
  3127                           pclath	equ	0x3FFA
  3128                           pcl	equ	0x3FF9
  3129                           tblptru	equ	0x3FF8
  3130                           tblptrh	equ	0x3FF7
  3131                           tblptrl	equ	0x3FF6
  3132                           tablat	equ	0x3FF5
  3133                           prodh	equ	0x3FF4
  3134                           prodl	equ	0x3FF3
  3135                           indf0	equ	0x3FEF
  3136                           postinc0	equ	0x3FEE
  3137                           postdec0	equ	0x3FED
  3138                           preinc0	equ	0x3FEC
  3139                           plusw0	equ	0x3FEB
  3140                           fsr0h	equ	0x3FEA
  3141                           fsr0l	equ	0x3FE9
  3142                           wreg	equ	0x3FE8
  3143                           indf1	equ	0x3FE7
  3144                           postinc1	equ	0x3FE6
  3145                           postdec1	equ	0x3FE5
  3146                           preinc1	equ	0x3FE4
  3147                           plusw1	equ	0x3FE3
  3148                           fsr1h	equ	0x3FE2
  3149                           fsr1l	equ	0x3FE1
  3150                           bsr	equ	0x3FE0
  3151                           indf2	equ	0x3FDF
  3152                           postinc2	equ	0x3FDE
  3153                           postdec2	equ	0x3FDD
  3154                           preinc2	equ	0x3FDC
  3155                           plusw2	equ	0x3FDB
  3156                           fsr2h	equ	0x3FDA
  3157                           fsr2l	equ	0x3FD9
  3158                           status	equ	0x3FD8

Data Sizes:
    Strings     0
    Constant    52
    Data        2
    BSS         80
    Persistent  8
    Stack       0

Auto Spaces:
    Space          Size  Autos    Used
    COMRAM           95     49      73
    BANK0           160     21      87
    BANK1           256      0       0
    BANK2           256      0       0
    BANK3           256      0       0
    BANK4           256      0       0
    BANK5           256      0       0
    BANK6           256      0       0
    BANK7           256      0       0
    BANK8           256      0       0
    BANK9           256      0       0
    BANK10          256      0       0
    BANK11          256      0       0
    BANK12          256      0       0
    BANK13          256      0       0
    BANK14          256      0       0
    BANK15          256      0       0

Pointer List with Targets:

    filtrar_dato@apuntadorinv	PTR int  size(2) Largest target is 62
		 -> x(BANK0[62]), 

    filtrar_dato@apuntadorarrc	PTR int  size(2) Largest target is 62
		 -> x(BANK0[62]), 

    filtrar_dato@apuntadorcoef	PTR unsigned char  size(2) Largest target is 31
		 -> B(CODE[31]), 

    inicie_cola@c	PTR struct eCola size(2) Largest target is 21
		 -> main@cola(BANK0[21]), 

    ADCC_SetADIInterruptHandler@InterruptHandler	PTR FTN()void  size(2) Largest target is 1
		 -> InterruocionADC(), ADCC_DefaultInterruptHandler(), 

    ADCC_ADI_InterruptHandler	PTR FTN()void  size(2) Largest target is 1
		 -> InterruocionADC(), Absolute function(), ADCC_DefaultInterruptHandler(), 

    UART1_SetErrorHandler@interruptHandler	PTR FTN()void  size(2) Largest target is 1
		 -> UART1_DefaultErrorHandler(), 

    UART1_SetOverrunErrorHandler@interruptHandler	PTR FTN()void  size(2) Largest target is 1
		 -> UART1_DefaultOverrunErrorHandler(), 

    UART1_SetFramingErrorHandler@interruptHandler	PTR FTN()void  size(2) Largest target is 1
		 -> UART1_DefaultFramingErrorHandler(), 

    UART1_ErrorHandler	PTR FTN()void  size(2) Largest target is 1
		 -> Absolute function(), UART1_DefaultErrorHandler(), 

    UART1_OverrunErrorHandler	PTR FTN()void  size(2) Largest target is 1
		 -> Absolute function(), UART1_DefaultOverrunErrorHandler(), 

    UART1_FramingErrorHandler	PTR FTN()void  size(2) Largest target is 1
		 -> Absolute function(), UART1_DefaultFramingErrorHandler(), 


Critical Paths under _main in COMRAM

    _main->_filtrar_dato
    _filtrar_dato->___lmul
    _UART1_Initialize->_UART1_SetErrorHandler
    _UART1_Initialize->_UART1_SetFramingErrorHandler
    _UART1_Initialize->_UART1_SetOverrunErrorHandler
    _ADCC_Initialize->_ADCC_SetADIInterruptHandler

Critical Paths under _INTERRUPT_InterruptManager in COMRAM

    None.

Critical Paths under _main in BANK0

    None.

Critical Paths under _INTERRUPT_InterruptManager in BANK0

    None.

Critical Paths under _main in BANK1

    None.

Critical Paths under _INTERRUPT_InterruptManager in BANK1

    None.

Critical Paths under _main in BANK2

    None.

Critical Paths under _INTERRUPT_InterruptManager in BANK2

    None.

Critical Paths under _main in BANK3

    None.

Critical Paths under _INTERRUPT_InterruptManager in BANK3

    None.

Critical Paths under _main in BANK4

    None.

Critical Paths under _INTERRUPT_InterruptManager in BANK4

    None.

Critical Paths under _main in BANK5

    None.

Critical Paths under _INTERRUPT_InterruptManager in BANK5

    None.

Critical Paths under _main in BANK6

    None.

Critical Paths under _INTERRUPT_InterruptManager in BANK6

    None.

Critical Paths under _main in BANK7

    None.

Critical Paths under _INTERRUPT_InterruptManager in BANK7

    None.

Critical Paths under _main in BANK8

    None.

Critical Paths under _INTERRUPT_InterruptManager in BANK8

    None.

Critical Paths under _main in BANK9

    None.

Critical Paths under _INTERRUPT_InterruptManager in BANK9

    None.

Critical Paths under _main in BANK10

    None.

Critical Paths under _INTERRUPT_InterruptManager in BANK10

    None.

Critical Paths under _main in BANK11

    None.

Critical Paths under _INTERRUPT_InterruptManager in BANK11

    None.

Critical Paths under _main in BANK12

    None.

Critical Paths under _INTERRUPT_InterruptManager in BANK12

    None.

Critical Paths under _main in BANK13

    None.

Critical Paths under _INTERRUPT_InterruptManager in BANK13

    None.

Critical Paths under _main in BANK14

    None.

Critical Paths under _INTERRUPT_InterruptManager in BANK14

    None.

Critical Paths under _main in BANK15

    None.

Critical Paths under _INTERRUPT_InterruptManager in BANK15

    None.

Call Graph Tables:

 ---------------------------------------------------------------------------------
 (Depth) Function   	        Calls       Base Space   Used Autos Params    Refs
 ---------------------------------------------------------------------------------
 (0) _main                                                24    24      0    2613
                                             46 COMRAM     3     3      0
                                              0 BANK0     21    21      0
           _ADCC_GetConversionResult
        _ADCC_SetADIInterruptHandler
               _INTERRUPT_Initialize
                     _SPI1_WriteByte
                  _SYSTEM_Initialize
                   _UART1_Initialize
                        _UART1_Write
                       _filtrar_dato
                        _inicie_cola
 ---------------------------------------------------------------------------------
 (1) _inicie_cola                                          2     0      2     183
                                              2 COMRAM     2     0      2
 ---------------------------------------------------------------------------------
 (1) _filtrar_dato                                        32    28      4    1189
                                             14 COMRAM    32    28      4
                             ___lmul
 ---------------------------------------------------------------------------------
 (2) ___lmul                                              12     4      8     636
                                              2 COMRAM    12     4      8
 ---------------------------------------------------------------------------------
 (1) _UART1_Write                                          1     1      0      22
                                              2 COMRAM     1     1      0
 ---------------------------------------------------------------------------------
 (1) _SYSTEM_Initialize                                    0     0      0     574
                    _ADCC_Initialize
                     _FVR_Initialize
               _INTERRUPT_Initialize
              _OSCILLATOR_Initialize
             _PIN_MANAGER_Initialize
                     _PMD_Initialize
                    _SPI1_Initialize
                    _TMR2_Initialize
                   _UART1_Initialize
 ---------------------------------------------------------------------------------
 (1) _UART1_Initialize                                     0     0      0     363
              _UART1_SetErrorHandler
       _UART1_SetFramingErrorHandler
       _UART1_SetOverrunErrorHandler
 ---------------------------------------------------------------------------------
 (2) _UART1_SetOverrunErrorHandler                         2     0      2     121
                                              2 COMRAM     2     0      2
 ---------------------------------------------------------------------------------
 (2) _UART1_SetFramingErrorHandler                         2     0      2     121
                                              2 COMRAM     2     0      2
 ---------------------------------------------------------------------------------
 (2) _UART1_SetErrorHandler                                2     0      2     121
                                              2 COMRAM     2     0      2
 ---------------------------------------------------------------------------------
 (2) _TMR2_Initialize                                      0     0      0       0
 ---------------------------------------------------------------------------------
 (2) _SPI1_Initialize                                      0     0      0       0
 ---------------------------------------------------------------------------------
 (2) _PMD_Initialize                                       0     0      0       0
 ---------------------------------------------------------------------------------
 (2) _PIN_MANAGER_Initialize                               0     0      0       0
 ---------------------------------------------------------------------------------
 (2) _OSCILLATOR_Initialize                                0     0      0       0
 ---------------------------------------------------------------------------------
 (2) _INTERRUPT_Initialize                                 0     0      0       0
 ---------------------------------------------------------------------------------
 (2) _FVR_Initialize                                       0     0      0       0
 ---------------------------------------------------------------------------------
 (2) _ADCC_Initialize                                      0     0      0     211
        _ADCC_SetADIInterruptHandler
 ---------------------------------------------------------------------------------
 (3) _ADCC_SetADIInterruptHandler                          2     0      2     211
                                              2 COMRAM     2     0      2
 ---------------------------------------------------------------------------------
 (1) _SPI1_WriteByte                                       1     1      0      22
                                              2 COMRAM     1     1      0
 ---------------------------------------------------------------------------------
 (1) _ADCC_GetConversionResult                             4     2      2       0
                                              2 COMRAM     4     2      2
 ---------------------------------------------------------------------------------
 Estimated maximum stack depth 3
 ---------------------------------------------------------------------------------
 (Depth) Function   	        Calls       Base Space   Used Autos Params    Refs
 ---------------------------------------------------------------------------------
 (4) _INTERRUPT_InterruptManager                           2     2      0       0
                                              0 COMRAM     2     2      0
                           _ADCC_ISR
 ---------------------------------------------------------------------------------
 (5) _ADCC_ISR                                             0     0      0       0
                   Absolute function *
       _ADCC_DefaultInterruptHandler *
                    _InterruocionADC *
 ---------------------------------------------------------------------------------
 (6) _InterruocionADC                                      0     0      0       0
 ---------------------------------------------------------------------------------
 (6) _ADCC_DefaultInterruptHandler                         0     0      0       0
 ---------------------------------------------------------------------------------
 (6) Absolute function(Fake)                               0     0      0       0
 ---------------------------------------------------------------------------------
 Estimated maximum stack depth 6
 ---------------------------------------------------------------------------------

 Call Graph Graphs:

 _main (ROOT)
   _ADCC_GetConversionResult
   _ADCC_SetADIInterruptHandler
   _INTERRUPT_Initialize
   _SPI1_WriteByte
   _SYSTEM_Initialize
     _ADCC_Initialize
       _ADCC_SetADIInterruptHandler
     _FVR_Initialize
     _INTERRUPT_Initialize
     _OSCILLATOR_Initialize
     _PIN_MANAGER_Initialize
     _PMD_Initialize
     _SPI1_Initialize
     _TMR2_Initialize
     _UART1_Initialize
       _UART1_SetErrorHandler
       _UART1_SetFramingErrorHandler
       _UART1_SetOverrunErrorHandler
   _UART1_Initialize
   _UART1_Write
   _filtrar_dato
     ___lmul
   _inicie_cola

 _INTERRUPT_InterruptManager (ROOT)
   _ADCC_ISR
     Absolute function(Fake) *
     _ADCC_DefaultInterruptHandler *
     _InterruocionADC *

 Address spaces:
Name               Size   Autos  Total    Cost      Usage
BIGRAM             FFF      0       0      70        0.0%
EEDATA             400      0       0       0        0.0%
BITBIGSFRllhhhh    22A      0       0      50        0.0%
BITBIGSFRllllll    191      0       0      68        0.0%
BITBANK15          100      0       0      34        0.0%
BANK15             100      0       0      35        0.0%
BITBANK14          100      0       0      32        0.0%
BANK14             100      0       0      33        0.0%
BITBANK13          100      0       0      30        0.0%
BANK13             100      0       0      31        0.0%
BITBANK12          100      0       0      28        0.0%
BANK12             100      0       0      29        0.0%
BITBANK11          100      0       0      26        0.0%
BANK11             100      0       0      27        0.0%
BITBANK10          100      0       0      24        0.0%
BANK10             100      0       0      25        0.0%
BITBANK9           100      0       0      22        0.0%
BANK9              100      0       0      23        0.0%
BITBANK8           100      0       0      20        0.0%
BANK8              100      0       0      21        0.0%
BITBANK7           100      0       0      18        0.0%
BANK7              100      0       0      19        0.0%
BITBANK6           100      0       0      16        0.0%
BANK6              100      0       0      17        0.0%
BITBANK5           100      0       0      14        0.0%
BANK5              100      0       0      15        0.0%
BITBANK4           100      0       0      12        0.0%
BANK4              100      0       0      13        0.0%
BITBANK3           100      0       0      10        0.0%
BANK3              100      0       0      11        0.0%
BITBANK2           100      0       0       8        0.0%
BANK2              100      0       0       9        0.0%
BITBANK1           100      0       0       6        0.0%
BANK1              100      0       0       7        0.0%
BITBIGSFRllhhhh     CB      0       0      46        0.0%
BITBIGSFRllhhhh     C6      0       0      43        0.0%
BITBIGSFRllhhhh     AA      0       0      40        0.0%
BITBANK0            A0      0       0       4        0.0%
BANK0               A0     15      57       5       54.4%
BITCOMRAM           5F      0       0       0        0.0%
COMRAM              5F     31      49       1       76.8%
BITBIGSFRllhhl      59      0       0      52        0.0%
BITBIGSFRllllll     33      0       0      62        0.0%
BITBIGSFRhhh        2D      0       0      36        0.0%
BITBIGSFRllllll     29      0       0      60        0.0%
BITBIGSFRllhhhh     1C      0       0      42        0.0%
BITBIGSFRllllll     1B      0       0      66        0.0%
BITBIGSFRllllll     11      0       0      65        0.0%
BITBIGSFRllllll      F      0       0      67        0.0%
BITBIGSFRlllllh      B      0       0      59        0.0%
BITBIGSFRhhl         B      0       0      37        0.0%
BITBIGSFRllhhhh      A      0       0      39        0.0%
BITBIGSFRllhhhl      5      0       0      51        0.0%
BITBIGSFRllllhl      5      0       0      58        0.0%
BITBIGSFRlllhl       5      0       0      56        0.0%
BITBIGSFRllhll       5      0       0      54        0.0%
BITBIGSFRllhlh       4      0       0      53        0.0%
BITBIGSFRlllhh       4      0       0      55        0.0%
BITBIGSFRllllhh      4      0       0      57        0.0%
BITBIGSFRhll         3      0       0      38        0.0%
BITBIGSFRllhhhh      2      0       0      47        0.0%
BITBIGSFRllhhhh      1      0       0      41        0.0%
BITBIGSFRllhhhh      1      0       0      44        0.0%
BITBIGSFRllhhhh      1      0       0      45        0.0%
BITBIGSFRllllll      1      0       0      63        0.0%
BITBIGSFRllllll      1      0       0      64        0.0%
BITBIGSFRllhhhh      1      0       0      49        0.0%
BITBIGSFRllhhhh      1      0       0      48        0.0%
BITBIGSFRllllll      1      0       0      61        0.0%
BIGSFR               0      0       0     200        0.0%
BITSFR_8             0      0       0     200        0.0%
SFR_8                0      0       0     200        0.0%
BITSFR_7             0      0       0     200        0.0%
SFR_7                0      0       0     200        0.0%
BITSFR_6             0      0       0     200        0.0%
SFR_6                0      0       0     200        0.0%
BITSFR_5             0      0       0     200        0.0%
SFR_5                0      0       0     200        0.0%
BITSFR_4             0      0       0     200        0.0%
SFR_4                0      0       0     200        0.0%
BITSFR_3             0      0       0     200        0.0%
SFR_3                0      0       0     200        0.0%
BITSFR_2             0      0       0     200        0.0%
SFR_2                0      0       0     200        0.0%
BITSFR_1             0      0       0     200        0.0%
SFR_1                0      0       0     200        0.0%
BITSFR               0      0       0     200        0.0%
SFR                  0      0       0     200        0.0%
STACK                0      0       0       2        0.0%
NULL                 0      0       0       0        0.0%
ABS                  0      0      A0      69        0.0%
DATA                 0      0      A0       3        0.0%
CODE                 0      0       0       0        0.0%


Microchip Technology PIC18 Macro Assembler V2.36 build 20220127204148 
Symbol Table                                                                                   Thu Apr 13 12:10:14 2023

                          SPI1_WriteByte@byte 0003                                             _B 1016  
                                           _k 0032                                             _q 0048  
                                           _x 0060                                            _D1 003E  
                                          _D2 003D                                            _D3 003C  
                                          _D4 003B                                            _D5 003A  
                                          _D6 0039                                            l97 156A  
                      __end_of_FVR_Initialize 18A0                                           l220 17E4  
                                         l214 17C0                                           l127 1836  
                                         l217 184E                                           l322 181C  
                                         l227 189E                                           l164 1896  
                                         l340 1882                                           l334 1878  
                                         l319 1806                                           l337 186E  
                                         l602 188C                                           l514 15D8  
                                         l418 18A8                                           l523 1864  
                                         l293 16AA                                           l367 1802  
                                         l680 147A                                           l763 1632  
                                         l764 1642                                           l749 128E  
                                         l698 172E                                           _PR2 003FAB  
                                         u620 15F8                                           u700 12D0  
                                         u621 15F4                                           u701 12CC  
                                         u630 1632                                           u631 162E  
                                         u640 1816                                           u641 1812  
                                         u650 1168                                           u730 146A  
                                         u651 1164                                           u731 1466  
                                         u715 1318                                           u660 119E  
                                         u740 147A                                           u661 119A  
                                         u741 1476                                           u725 13C4  
                                         u670 11DE                                           u750 14A0  
                                         u671 11DA                                           u751 149C  
                                         u680 1252                                           u760 14B0  
                                         u681 124E                                           u761 14AC  
                                         u690 127A                                           u691 1276  
                             _TMR2_Initialize 17E6                                           tosl 003FFD  
                                         wreg 003FE8                  ?_ADCC_SetADIInterruptHandler 0003  
                                        l2201 14C2                                          l2211 153C  
                                        l2203 14DA                                          l2221 154A  
                                        l2213 153E                                          l2205 14E8  
                                        l2301 1036                                          l2223 154C  
                                        l2215 1540                                          l2207 14F8  
                                        l2231 17C2                                          l2311 1086  
                                        l2303 1054                                          l2241 15CA  
                                        l2233 1838                                          l2217 1546  
                                        l2209 153A                                          l2225 181E  
                                        l2321 10B8                                          l2313 10A0  
                                        l2305 105C                                          l2401 136E  
                                        l2243 15CC                                          l2235 1898  
                                        l2219 1548                                          l2227 1834  
                                        l2251 1682                                          l2331 117A  
                                        l2323 1152                                          l2315 10B0  
                                        l2307 1064                                          l2411 141A  
                                        l2403 138C                                          l2237 156C  
                                        l2229 18A6                                          l2245 17E6  
                                        l2253 168E                                          l2261 15EA  
                                        l2341 11AE                                          l2333 1182  
                                        l2325 1156                                          l2309 106C  
                                        l2421 1438                                          l2413 1422  
                                        l2405 13B8                                          l2239 15C6  
                                        l2247 17FA                                          l2255 169A  
                                        l2271 179C                                          l2263 15F8  
                                        l2351 122E                                          l2343 11B6  
                                        l2335 118A                                          l2327 1168  
                                        l2431 1456                                          l2423 143E  
                                        l2415 1426                                          l2407 13F2  
                                        l2193 1870                                          l2257 16A6  
                                        l2249 1644                                          l2281 17B0  
                                        l2273 17A0                                          l2265 1608  
                                        l2361 125E                                          l2353 1232  
                                        l2345 11BE                                          l2337 119E  
                                        l2329 1170                                          l2441 148C  
                                        l2425 1444                                          l2417 142C  
                                        l2409 1418                                          l2433 145A  
                                        l2195 1866                                          l2283 17B4  
                                        l2275 17A4                                          l2291 1816  
                                        l2267 1612                                          l2259 15DA  
                                        l2355 1236                                          l2347 11C2  
                                        l2339 11A6                                          l2451 14B6  
                                        l2435 146A                                          l2443 1490  
                                        l2427 144A                                          l2419 1432  
                                        l2371 1290                                          l2293 1850  
                                        l2269 1890                                          l2197 187A  
                                        l2285 17B8                                          l2277 17A8  
                                        l2365 127E                                          l2349 11DE  
                                        l2453 14B8                                          l2445 14A0  
                                        l2437 147C                                          l2429 1450  
                                        l2381 12AA                                          l2373 1294  
                                        l2199 1884                                          l2287 17BC  
                                        l2279 17AC                                          l2367 1286  
                                        l2359 1256                                          l2447 14B0  
                                        l2439 1488                                          l2391 12D4  
                                        l2383 12B6                                          l2375 1296  
                                        l2289 1806                                          l2297 16F2  
                                        l2449 14B4                                          l2393 12E0  
                                        l2385 12BC                                          l2377 129A  
                                        l2299 1036                                          l2395 130C  
                                        l2387 12C0                                          l2379 129E  
                                        l2397 1346                                          l2389 12D0  
                                        l2399 136C                                          _LATA 003FBA  
                                        _LATB 003FBB                                          _LATC 003FBC  
                                        _LATD 003FBD                                          _LATE 003FBE  
                                        _T2PR 003FAB                                          _PMD0 0039C0  
                                        _PMD1 0039C1                                          _PMD2 0039C2  
                                        _PMD3 0039C3                                          _PMD4 0039C4  
                                        _PMD5 0039C5                                          _PMD6 0039C6  
                                        _PMD7 0039C7                                          _TMR2 003FAA  
                                        _WPUA 003A41                                          _WPUB 003A51  
                                        _WPUC 003A61                                          _WPUD 003A71  
                                        _WPUE 003A81                              __end_of_ADCC_ISR 179C  
                                        _conv 003F                                          _main 1290  
                                        fsr2h 003FDA                                          fsr2l 003FD9  
                               ?_filtrar_dato 000F                                          start 001A  
                                ?_inicie_cola 0003                                _SPI1STATUSbits 003D17  
                                ___param_bank 000000                               ?_FVR_Initialize 0001  
               __end_of_OSCILLATOR_Initialize 1850                                         _ADACT 003EFE  
                                       _ADCAP 003EF5                                         ?_main 0001  
                                       _ADCLK 003EFF                                         _ADCNT 003EEB  
                                       _ADPCH 003EF1                                         _ADREF 003EFD  
                                       _ADRPT 003EEC                                         _U1P1H 003DED  
                                       _U1P2H 003DEF                                         _U1P3H 003DF1  
                                       _U1P1L 003DEC                                         _U1P2L 003DEE  
                                       _T2CON 003FAC                                         _U1P3L 003DF0  
                                       _T2HLT 003FAD                                         _T2TMR 003FAA  
                                       _U1UIR 003DF8                                         _T2RST 003FAF  
                                       _U1RXB 003DE8                                         _U1TXB 003DEA  
                                       i2l425 175E                                         i2l605 18AC  
                                       i2l668 18A4                                         i2l599 179A  
                                       _OSCEN 0039DD                                         _TRISA 003FC2  
                                       _TRISB 003FC3                                         _TRISC 003FC4  
                                       _TRISD 003FC5                                         _TRISE 003FC6  
                                       _Dato1 0038                                         _Dato2 0037  
                         ___lmul@multiplicand 0007                                         pclath 003FFA  
                                       pclatu 003FFB                                         tablat 003FF5  
                              ??_filtrar_dato 0013                                         status 003FD8  
            _UART1_DefaultFramingErrorHandler 000000                                  _ADCInterrupt 0040  
                             __initialization 16AC                                  __end_of_main 14C2  
                     __end_of_TMR2_Initialize 1804                   ?_INTERRUPT_InterruptManager 0001  
                                ?_UART1_Write 0001                                        ??_main 002F  
                   filtrar_dato@apuntadorcoef 0025                                 __activetblptr 000003  
                   filtrar_dato@apuntadorarrc 002D                              _UART1_Initialize 1644  
                                      _ADACCH 003EE9                                        _ADACCL 003EE8  
                                      _ADACCU 003EEA                                        _ADACQH 003EF4  
                                      _ADACQL 003EF3                                        _ADCON0 003EF8  
                                      _ADCON1 003EF9                                        _ADCON2 003EFA  
                                      _ADCON3 003EFB                                        _ADERRH 003EE3  
                                      _ADERRL 003EE2                                        _ADLTHH 003EDF  
                                      _ADLTHL 003EDE                                        _ADRESH 003EF0  
                                      _ADRESL 003EEF                                        _ADPREH 003EF7  
                                      _ADPREL 003EF6                                        _ADSTAT 003EFC  
                                      _ADUTHH 003EE1                                        _ADUTHL 003EE0  
                                      _ANSELA 003A40                                        _ANSELB 003A50  
                                      _ANSELC 003A60                                        _ANSELD 003A70  
                                      _ANSELE 003A80                                        _RB1I2C 003A5A  
                                      _RB2I2C 003A5B                                        _RD0I2C 003A7A  
                                      _U1CON0 003DF2                                        _U1CON1 003DF3  
                                      _U1CON2 003DF4                                        _RD1I2C 003A7B  
                                      _RC3I2C 003A6A                                        _RC4I2C 003A6B  
                                      _U1BRGH 003DF6                                        _U1FIFO 003DF7  
                                      _U1BRGL 003DF5                                        _RC3PPS 003A13  
                                      _RC5PPS 003A15                                        _ODCONA 003A42  
                                      _ODCONB 003A52                                        _RC6PPS 003A16  
                                      _ODCONC 003A62                                        _ODCOND 003A72  
                                      _ODCONE 003A82                                        i2l1545 176C  
                                      i2l1491 18A0                                        i2l1547 1770  
                                      i2l1549 1782                                        i2l1735 173C  
                                      i2l1737 174C                                        i2l1739 175A  
                                      _INLVLA 003A44                                        _INLVLB 003A54  
                                      _INLVLC 003A64                                        _INLVLD 003A74  
                                      _INLVLE 003A84                                        _FVRCON 003EC1  
                                      _OSCFRQ 0039DF                                        i2u5_40 1782  
                                      i2u5_41 177E                                        i2u6_48 1788  
                                      i2u6_49 179A                         _UART1_SetErrorHandler 187A  
                  ??_ADCC_GetConversionResult 0005                                        ___lmul 15DA  
                                      clear_0 16CE                                        clear_1 16DA  
                                      isa$std 000001                                     ?_ADCC_ISR 0001  
                             _ADCC_Initialize 156C                                _PMD_Initialize 17C2  
                                __pdataCOMRAM 0048                                  __mediumconst 0000  
                                      tblptrh 003FF7                                        tblptrl 003FF6  
                                      tblptru 003FF8   ADCC_SetADIInterruptHandler@InterruptHandler 0003  
        __end_of_UART1_SetOverrunErrorHandler 1870                  _UART1_SetOverrunErrorHandler 1866  
                             _InterruocionADC 18A0                     _UART1_DefaultErrorHandler 000000  
                           _SYSTEM_Initialize 179C                                    __accesstop 0060  
                     __end_of__initialization 16EC                            ?_SYSTEM_Initialize 0001  
                               ___rparam_used 000001                                __pcstackCOMRAM 0001  
                         ??_SYSTEM_Initialize 0005                             ??_SPI1_Initialize 0003  
                            ?_TMR2_Initialize 0001                      filtrar_dato@apuntadorinv 0023  
                      __end_of_PMD_Initialize 17E6                                    ??_ADCC_ISR 0001  
                        __end_of_filtrar_dato 1290                            _spi1_configuration 1011  
                   _UART1_FramingErrorHandler 0046                     __end_of_SYSTEM_Initialize 17C2  
                                  __pbssBANK0 0060                 ?_UART1_SetOverrunErrorHandler 0003  
                      ?_UART1_SetErrorHandler 0003                                  inicie_cola@c 0003  
                                  __pnvCOMRAM 0044                                _SPI1_WriteByte 188E  
                                     IVTBASEH 003FD6                                       IVTBASEL 003FD5  
                                     IVTBASEU 003FD7                              ??_FVR_Initialize 0003  
                                     ?___lmul 0003                       __end_of_ADCC_Initialize 15DA  
                                     _ADFLTRH 003EE7                                       _ADFLTRL 003EE6  
                              ___lmul@product 000B                                       _ADPREVH 003EEE  
                                     _ADPREVL 003EED                                       _ADSTPTH 003EE5  
                                     _ADSTPTL 003EE4                               ?_PMD_Initialize 0001  
                     __end_of_InterruocionADC 18A6                                       _U1ERRIE 003DFA  
                                     _U1ERRIR 003DF9                                       _U1RXPPS 003AE5  
                                     _OSCCON1 0039D9                                       _OSCCON3 0039DB  
                               filtrar_dato@i 0027                                 filtrar_dato@y 001F  
                                     _SPI1CLK 003D1C                                       _SPI1RXB 003D10  
                                     i2u28_40 174C                                       i2u28_41 1748  
                                     _SPI1TXB 003D11                                       i2u29_40 175A  
                                     i2u29_41 1756                                       _OSCTUNE 0039DE  
                                     _SLRCONA 003A43                                       _SLRCONB 003A53  
                                     _SLRCONC 003A63                                       _SLRCOND 003A73  
                                     _SLRCONE 003A83                        __end_of_SPI1_WriteByte 1898  
                                     __Hparam 0000                                       __Lparam 0000  
                    __end_of_UART1_Initialize 16AC                                  __psmallconst 1000  
                                     __pcinit 16AC                                       __ramtop 1000  
                                     __ptext0 1290                                       __ptext1 16F2  
                                     __ptext2 1036                                       __ptext3 15DA  
                                     __ptext4 1804                                       __ptext5 179C  
                                     __ptext6 1644                                       __ptext7 1866  
                                     __ptext8 1870                                       __ptext9 187A  
                       _OSCILLATOR_Initialize 1838                                     _T2CONbits 003FAC  
                    ??_PIN_MANAGER_Initialize 0003                                     _T2HLTbits 003FAD  
                        end_of_initialization 16EC                                     _T2RSTbits 003FAF  
                             ?_SPI1_WriteByte 0001                                    _lookuphexa 1001  
              ??_UART1_SetOverrunErrorHandler 0005                               filtrar_dato@anx 002B  
                             filtrar_dato@inx 0029                                     _SPI1TCNTL 003D12  
                                     postdec2 003FDD                                       postinc0 003FEE  
                                     postinc2 003FDE                              ?_ADCC_Initialize 0001  
                           UART1_Write@txData 0003                              ?_InterruocionADC 0001  
         __end_of_ADCC_SetADIInterruptHandler 188E                   _ADCC_SetADIInterruptHandler 1884  
                                   _TRISCbits 003FC4                 ??_ADCC_SetADIInterruptHandler 0005  
                             _SPI1_Initialize 181E                                  _filtrar_dato 1036  
                __end_of_INTERRUPT_Initialize 18AA                ??_ADCC_DefaultInterruptHandler 0001  
                              __end_of___lmul 1644                                 __pidataCOMRAM 18AA  
                      ?_OSCILLATOR_Initialize 0001                     ?_ADCC_GetConversionResult 0003  
                         start_initialization 16AC                       ??_UART1_SetErrorHandler 0005  
                                  ivt0x8_base 0008                                  _inicie_envio 0036  
                               ??_inicie_cola 0005                              ??_PMD_Initialize 0003  
                                    ??___lmul 000B                                   __pbssCOMRAM 0032  
                          _UART1_ErrorHandler 00B3                                 __pcstackBANK0 009E  
                     __end_of_SPI1_Initialize 1838                                     __end_of_B 1035  
                                   __pnvBANK0 00B3                        _PIN_MANAGER_Initialize 14C2  
                           ?_UART1_Initialize 0001          __end_of_UART1_SetFramingErrorHandler 187A  
                _UART1_SetFramingErrorHandler 1870                            ??_UART1_Initialize 0005  
                         __end_of_inicie_cola 1730                              _uart1RxLastError 0041  
                               ??_UART1_Write 0003                  ??_INTERRUPT_InterruptManager 0001  
                                    _ADCC_ISR 176C                                   __smallconst 1000  
            _UART1_DefaultOverrunErrorHandler 000000                              ??_SPI1_WriteByte 0003  
                                    _T2CLKCON 003FAE                                   _U1ERRIRbits 003DF9  
                        _INTERRUPT_Initialize 18A6         UART1_SetErrorHandler@interruptHandler 0003  
                                    _LATBbits 003FBB                                      _LATDbits 003FBD  
                                    _LATEbits 003FBE                                      _PIE1bits 003991  
                                _SPI1CON0bits 003D14                                      _PIR1bits 0039A1  
                                    _PIR2bits 0039A2                                      _SPI1BAUD 003D19  
                                    _PIR3bits 0039A3                                filtrar_dato@in 000F  
                                    _PIR4bits 0039A4                                      _SPI1CON0 003D14  
                                    _SPI1CON1 003D15                                      _SPI1CON2 003D16  
                                   _resultado 0034                 ?_UART1_SetFramingErrorHandler 0003  
                                  _ADCON0bits 003EF8                                    _ADCON1bits 003EF9  
                                  _ADCON2bits 003EFA                                    _ADCON3bits 003EFB  
                         __end_of_UART1_Write 181E                              ?_SPI1_Initialize 0001  
                                 _INTCON0bits 003FD2                             ___lmul@multiplier 0003  
                       ?_INTERRUPT_Initialize 0001                             ??_TMR2_Initialize 0003  
                                  _ADSTATbits 003EFC                                   _inicie_cola 16F2  
                                    __Hrparam 0000              __end_of_ADCC_GetConversionResult 1866  
                                    __Lrparam 0000                       ??_OSCILLATOR_Initialize 0003  
                            _resultado_filtro 0042                                      __pivt0x8 0008  
                                    __ptext10 17E6                                      __ptext11 181E  
                                    __ptext20 1850                                      __ptext12 17C2  
                                    __ptext21 1730                                      __ptext13 14C2  
                                    __ptext22 176C                                      __ptext14 1838  
                                    __ptext23 18AC                                      __ptext15 18A6  
                                    __ptext24 18A0                                      __ptext16 1898  
                                    __ptext25 0000                                      __ptext17 156C  
                                    __ptext18 1884                                      __ptext19 188E  
                                  _U1CON0bits 003DF2                 __end_of_UART1_SetErrorHandler 1884  
                          fp__InterruocionADC 0000                     _UART1_OverrunErrorHandler 00B5  
                   _ADCC_ADI_InterruptHandler 0044  UART1_SetOverrunErrorHandler@interruptHandler 0003  
                                    isa$xinst 000000            __end_of_INTERRUPT_InterruptManager 176C  
                  _INTERRUPT_InterruptManager 1730                                      main@cola 009E  
                                 _UART1_Write 1804                ??_UART1_SetFramingErrorHandler 0005  
                                  _FVRCONbits 003EC1                            __end_of_lookuphexa 1011  
                      ??_INTERRUPT_Initialize 0003          __end_of_ADCC_DefaultInterruptHandler 18AE  
                _ADCC_DefaultInterruptHandler 18AC                                      intlevel2 0000  
                     ?_PIN_MANAGER_Initialize 0001                                    _SPI1SDIPPS 003ADF  
                                  _SPI1SCKPPS 003ADE  UART1_SetFramingErrorHandler@interruptHandler 0003  
                    _ADCC_GetConversionResult 1850                                _FVR_Initialize 1898  
              __end_of_PIN_MANAGER_Initialize 156C                             ??_ADCC_Initialize 0005  
             fp__ADCC_DefaultInterruptHandler 0000                 ?_ADCC_DefaultInterruptHandler 0001  
                           ??_InterruocionADC 0001                    __end_of_spi1_configuration 1016  
